
./logger_task:     file format elf32-littlearm


Disassembly of section .text:

00008000 <_start>:
_start():
/home/schenkj/os2022/sp/sources/userspace/crt0.s:10
;@ startovaci symbol - vstupni bod z jadra OS do uzivatelskeho programu
;@ v podstate jen ihned zavola nejakou C funkci, nepotrebujeme nic tak kritickeho, abychom to vsechno museli psal v ASM
;@ jen _start vlastne ani neni funkce, takze by tento vstupni bod mel byt psany takto; rovnez je treba se ujistit, ze
;@ je tento symbol relokovany spravne na 0x8000 (tam OS ocekava, ze se nachazi vstupni bod)
_start:
    bl __crt0_run
    8000:	eb00001a 	bl	8070 <__crt0_run>

00008004 <_hang>:
_hang():
/home/schenkj/os2022/sp/sources/userspace/crt0.s:13
    ;@ z funkce __crt0_run by se nemel proces uz vratit, ale kdyby neco, tak se zacyklime
_hang:
    b _hang
    8004:	eafffffe 	b	8004 <_hang>

00008008 <__crt0_init_bss>:
__crt0_init_bss():
/home/schenkj/os2022/sp/sources/userspace/crt0.c:10

extern unsigned int __bss_start;
extern unsigned int __bss_end;

void __crt0_init_bss()
{
    8008:	e52db004 	push	{fp}		; (str fp, [sp, #-4]!)
    800c:	e28db000 	add	fp, sp, #0
    8010:	e24dd00c 	sub	sp, sp, #12
/home/schenkj/os2022/sp/sources/userspace/crt0.c:11
    unsigned int* begin = (unsigned int*)__bss_start;
    8014:	e59f304c 	ldr	r3, [pc, #76]	; 8068 <__crt0_init_bss+0x60>
    8018:	e5933000 	ldr	r3, [r3]
    801c:	e50b3008 	str	r3, [fp, #-8]
/home/schenkj/os2022/sp/sources/userspace/crt0.c:12
    for (; begin < (unsigned int*)__bss_end; begin++)
    8020:	ea000005 	b	803c <__crt0_init_bss+0x34>
/home/schenkj/os2022/sp/sources/userspace/crt0.c:13 (discriminator 2)
        *begin = 0;
    8024:	e51b3008 	ldr	r3, [fp, #-8]
    8028:	e3a02000 	mov	r2, #0
    802c:	e5832000 	str	r2, [r3]
/home/schenkj/os2022/sp/sources/userspace/crt0.c:12 (discriminator 2)
    for (; begin < (unsigned int*)__bss_end; begin++)
    8030:	e51b3008 	ldr	r3, [fp, #-8]
    8034:	e2833004 	add	r3, r3, #4
    8038:	e50b3008 	str	r3, [fp, #-8]
/home/schenkj/os2022/sp/sources/userspace/crt0.c:12 (discriminator 1)
    803c:	e59f3028 	ldr	r3, [pc, #40]	; 806c <__crt0_init_bss+0x64>
    8040:	e5933000 	ldr	r3, [r3]
    8044:	e1a02003 	mov	r2, r3
    8048:	e51b3008 	ldr	r3, [fp, #-8]
    804c:	e1530002 	cmp	r3, r2
    8050:	3afffff3 	bcc	8024 <__crt0_init_bss+0x1c>
/home/schenkj/os2022/sp/sources/userspace/crt0.c:14
}
    8054:	e320f000 	nop	{0}
    8058:	e320f000 	nop	{0}
    805c:	e28bd000 	add	sp, fp, #0
    8060:	e49db004 	pop	{fp}		; (ldr fp, [sp], #4)
    8064:	e12fff1e 	bx	lr
    8068:	00008f84 	andeq	r8, r0, r4, lsl #31
    806c:	00008f94 	muleq	r0, r4, pc	; <UNPREDICTABLE>

00008070 <__crt0_run>:
__crt0_run():
/home/schenkj/os2022/sp/sources/userspace/crt0.c:17

void __crt0_run()
{
    8070:	e92d4800 	push	{fp, lr}
    8074:	e28db004 	add	fp, sp, #4
    8078:	e24dd008 	sub	sp, sp, #8
/home/schenkj/os2022/sp/sources/userspace/crt0.c:19
    // inicializace .bss sekce (vynulovani)
    __crt0_init_bss();
    807c:	ebffffe1 	bl	8008 <__crt0_init_bss>
/home/schenkj/os2022/sp/sources/userspace/crt0.c:22

    // volani konstruktoru globalnich trid (C++)
    _cpp_startup();
    8080:	eb000040 	bl	8188 <_cpp_startup>
/home/schenkj/os2022/sp/sources/userspace/crt0.c:27

    // volani funkce main
    // nebudeme se zde zabyvat predavanim parametru do funkce main
    // jinak by se mohly predavat napr. namapovane do virtualniho adr. prostoru a odkazem pres zasobnik (kam nam muze OS pushnout co chce)
    int result = main(0, 0);
    8084:	e3a01000 	mov	r1, #0
    8088:	e3a00000 	mov	r0, #0
    808c:	eb000078 	bl	8274 <main>
    8090:	e50b0008 	str	r0, [fp, #-8]
/home/schenkj/os2022/sp/sources/userspace/crt0.c:30

    // volani destruktoru globalnich trid (C++)
    _cpp_shutdown();
    8094:	eb000051 	bl	81e0 <_cpp_shutdown>
/home/schenkj/os2022/sp/sources/userspace/crt0.c:33

    // volani terminate() syscallu s navratovym kodem funkce main
    asm volatile("mov r0, %0" : : "r" (result));
    8098:	e51b3008 	ldr	r3, [fp, #-8]
    809c:	e1a00003 	mov	r0, r3
/home/schenkj/os2022/sp/sources/userspace/crt0.c:34
    asm volatile("svc #1");
    80a0:	ef000001 	svc	0x00000001
/home/schenkj/os2022/sp/sources/userspace/crt0.c:35
}
    80a4:	e320f000 	nop	{0}
    80a8:	e24bd004 	sub	sp, fp, #4
    80ac:	e8bd8800 	pop	{fp, pc}

000080b0 <__cxa_guard_acquire>:
__cxa_guard_acquire():
/home/schenkj/os2022/sp/sources/userspace/cxxabi.cpp:11
	extern "C" int __cxa_guard_acquire (__guard *);
	extern "C" void __cxa_guard_release (__guard *);
	extern "C" void __cxa_guard_abort (__guard *);

	extern "C" int __cxa_guard_acquire (__guard *g)
	{
    80b0:	e52db004 	push	{fp}		; (str fp, [sp, #-4]!)
    80b4:	e28db000 	add	fp, sp, #0
    80b8:	e24dd00c 	sub	sp, sp, #12
    80bc:	e50b0008 	str	r0, [fp, #-8]
/home/schenkj/os2022/sp/sources/userspace/cxxabi.cpp:12
		return !*(char *)(g);
    80c0:	e51b3008 	ldr	r3, [fp, #-8]
    80c4:	e5d33000 	ldrb	r3, [r3]
    80c8:	e3530000 	cmp	r3, #0
    80cc:	03a03001 	moveq	r3, #1
    80d0:	13a03000 	movne	r3, #0
    80d4:	e6ef3073 	uxtb	r3, r3
/home/schenkj/os2022/sp/sources/userspace/cxxabi.cpp:13
	}
    80d8:	e1a00003 	mov	r0, r3
    80dc:	e28bd000 	add	sp, fp, #0
    80e0:	e49db004 	pop	{fp}		; (ldr fp, [sp], #4)
    80e4:	e12fff1e 	bx	lr

000080e8 <__cxa_guard_release>:
__cxa_guard_release():
/home/schenkj/os2022/sp/sources/userspace/cxxabi.cpp:16

	extern "C" void __cxa_guard_release (__guard *g)
	{
    80e8:	e52db004 	push	{fp}		; (str fp, [sp, #-4]!)
    80ec:	e28db000 	add	fp, sp, #0
    80f0:	e24dd00c 	sub	sp, sp, #12
    80f4:	e50b0008 	str	r0, [fp, #-8]
/home/schenkj/os2022/sp/sources/userspace/cxxabi.cpp:17
		*(char *)g = 1;
    80f8:	e51b3008 	ldr	r3, [fp, #-8]
    80fc:	e3a02001 	mov	r2, #1
    8100:	e5c32000 	strb	r2, [r3]
/home/schenkj/os2022/sp/sources/userspace/cxxabi.cpp:18
	}
    8104:	e320f000 	nop	{0}
    8108:	e28bd000 	add	sp, fp, #0
    810c:	e49db004 	pop	{fp}		; (ldr fp, [sp], #4)
    8110:	e12fff1e 	bx	lr

00008114 <__cxa_guard_abort>:
__cxa_guard_abort():
/home/schenkj/os2022/sp/sources/userspace/cxxabi.cpp:21

	extern "C" void __cxa_guard_abort (__guard *)
	{
    8114:	e52db004 	push	{fp}		; (str fp, [sp, #-4]!)
    8118:	e28db000 	add	fp, sp, #0
    811c:	e24dd00c 	sub	sp, sp, #12
    8120:	e50b0008 	str	r0, [fp, #-8]
/home/schenkj/os2022/sp/sources/userspace/cxxabi.cpp:23

	}
    8124:	e320f000 	nop	{0}
    8128:	e28bd000 	add	sp, fp, #0
    812c:	e49db004 	pop	{fp}		; (ldr fp, [sp], #4)
    8130:	e12fff1e 	bx	lr

00008134 <__dso_handle>:
__dso_handle():
/home/schenkj/os2022/sp/sources/userspace/cxxabi.cpp:27
}

extern "C" void __dso_handle()
{
    8134:	e52db004 	push	{fp}		; (str fp, [sp, #-4]!)
    8138:	e28db000 	add	fp, sp, #0
/home/schenkj/os2022/sp/sources/userspace/cxxabi.cpp:29
    // ignore dtors for now
}
    813c:	e320f000 	nop	{0}
    8140:	e28bd000 	add	sp, fp, #0
    8144:	e49db004 	pop	{fp}		; (ldr fp, [sp], #4)
    8148:	e12fff1e 	bx	lr

0000814c <__cxa_atexit>:
__cxa_atexit():
/home/schenkj/os2022/sp/sources/userspace/cxxabi.cpp:32

extern "C" void __cxa_atexit()
{
    814c:	e52db004 	push	{fp}		; (str fp, [sp, #-4]!)
    8150:	e28db000 	add	fp, sp, #0
/home/schenkj/os2022/sp/sources/userspace/cxxabi.cpp:34
    // ignore dtors for now
}
    8154:	e320f000 	nop	{0}
    8158:	e28bd000 	add	sp, fp, #0
    815c:	e49db004 	pop	{fp}		; (ldr fp, [sp], #4)
    8160:	e12fff1e 	bx	lr

00008164 <__cxa_pure_virtual>:
__cxa_pure_virtual():
/home/schenkj/os2022/sp/sources/userspace/cxxabi.cpp:37

extern "C" void __cxa_pure_virtual()
{
    8164:	e52db004 	push	{fp}		; (str fp, [sp, #-4]!)
    8168:	e28db000 	add	fp, sp, #0
/home/schenkj/os2022/sp/sources/userspace/cxxabi.cpp:39
    // pure virtual method called
}
    816c:	e320f000 	nop	{0}
    8170:	e28bd000 	add	sp, fp, #0
    8174:	e49db004 	pop	{fp}		; (ldr fp, [sp], #4)
    8178:	e12fff1e 	bx	lr

0000817c <__aeabi_unwind_cpp_pr1>:
__aeabi_unwind_cpp_pr1():
/home/schenkj/os2022/sp/sources/userspace/cxxabi.cpp:42

extern "C" void __aeabi_unwind_cpp_pr1()
{
    817c:	e52db004 	push	{fp}		; (str fp, [sp, #-4]!)
    8180:	e28db000 	add	fp, sp, #0
/home/schenkj/os2022/sp/sources/userspace/cxxabi.cpp:43 (discriminator 1)
	while (true)
    8184:	eafffffe 	b	8184 <__aeabi_unwind_cpp_pr1+0x8>

00008188 <_cpp_startup>:
_cpp_startup():
/home/schenkj/os2022/sp/sources/userspace/cxxabi.cpp:61
extern "C" dtor_ptr __DTOR_LIST__[0];
// konec pole destruktoru
extern "C" dtor_ptr __DTOR_END__[0];

extern "C" int _cpp_startup(void)
{
    8188:	e92d4800 	push	{fp, lr}
    818c:	e28db004 	add	fp, sp, #4
    8190:	e24dd008 	sub	sp, sp, #8
/home/schenkj/os2022/sp/sources/userspace/cxxabi.cpp:66
	ctor_ptr* fnptr;
	
	// zavolame konstruktory globalnich C++ trid
	// v poli __CTOR_LIST__ jsou ukazatele na vygenerovane stuby volani konstruktoru
	for (fnptr = __CTOR_LIST__; fnptr < __CTOR_END__; fnptr++)
    8194:	e59f303c 	ldr	r3, [pc, #60]	; 81d8 <_cpp_startup+0x50>
    8198:	e50b3008 	str	r3, [fp, #-8]
/home/schenkj/os2022/sp/sources/userspace/cxxabi.cpp:66 (discriminator 3)
    819c:	e51b3008 	ldr	r3, [fp, #-8]
    81a0:	e59f2034 	ldr	r2, [pc, #52]	; 81dc <_cpp_startup+0x54>
    81a4:	e1530002 	cmp	r3, r2
    81a8:	2a000006 	bcs	81c8 <_cpp_startup+0x40>
/home/schenkj/os2022/sp/sources/userspace/cxxabi.cpp:67 (discriminator 2)
		(*fnptr)();
    81ac:	e51b3008 	ldr	r3, [fp, #-8]
    81b0:	e5933000 	ldr	r3, [r3]
    81b4:	e12fff33 	blx	r3
/home/schenkj/os2022/sp/sources/userspace/cxxabi.cpp:66 (discriminator 2)
	for (fnptr = __CTOR_LIST__; fnptr < __CTOR_END__; fnptr++)
    81b8:	e51b3008 	ldr	r3, [fp, #-8]
    81bc:	e2833004 	add	r3, r3, #4
    81c0:	e50b3008 	str	r3, [fp, #-8]
    81c4:	eafffff4 	b	819c <_cpp_startup+0x14>
/home/schenkj/os2022/sp/sources/userspace/cxxabi.cpp:69
	
	return 0;
    81c8:	e3a03000 	mov	r3, #0
/home/schenkj/os2022/sp/sources/userspace/cxxabi.cpp:70
}
    81cc:	e1a00003 	mov	r0, r3
    81d0:	e24bd004 	sub	sp, fp, #4
    81d4:	e8bd8800 	pop	{fp, pc}
    81d8:	00008f81 	andeq	r8, r0, r1, lsl #31
    81dc:	00008f81 	andeq	r8, r0, r1, lsl #31

000081e0 <_cpp_shutdown>:
_cpp_shutdown():
/home/schenkj/os2022/sp/sources/userspace/cxxabi.cpp:73

extern "C" int _cpp_shutdown(void)
{
    81e0:	e92d4800 	push	{fp, lr}
    81e4:	e28db004 	add	fp, sp, #4
    81e8:	e24dd008 	sub	sp, sp, #8
/home/schenkj/os2022/sp/sources/userspace/cxxabi.cpp:77
	dtor_ptr* fnptr;
	
	// zavolame destruktory globalnich C++ trid
	for (fnptr = __DTOR_LIST__; fnptr < __DTOR_END__; fnptr++)
    81ec:	e59f303c 	ldr	r3, [pc, #60]	; 8230 <_cpp_shutdown+0x50>
    81f0:	e50b3008 	str	r3, [fp, #-8]
/home/schenkj/os2022/sp/sources/userspace/cxxabi.cpp:77 (discriminator 3)
    81f4:	e51b3008 	ldr	r3, [fp, #-8]
    81f8:	e59f2034 	ldr	r2, [pc, #52]	; 8234 <_cpp_shutdown+0x54>
    81fc:	e1530002 	cmp	r3, r2
    8200:	2a000006 	bcs	8220 <_cpp_shutdown+0x40>
/home/schenkj/os2022/sp/sources/userspace/cxxabi.cpp:78 (discriminator 2)
		(*fnptr)();
    8204:	e51b3008 	ldr	r3, [fp, #-8]
    8208:	e5933000 	ldr	r3, [r3]
    820c:	e12fff33 	blx	r3
/home/schenkj/os2022/sp/sources/userspace/cxxabi.cpp:77 (discriminator 2)
	for (fnptr = __DTOR_LIST__; fnptr < __DTOR_END__; fnptr++)
    8210:	e51b3008 	ldr	r3, [fp, #-8]
    8214:	e2833004 	add	r3, r3, #4
    8218:	e50b3008 	str	r3, [fp, #-8]
    821c:	eafffff4 	b	81f4 <_cpp_shutdown+0x14>
/home/schenkj/os2022/sp/sources/userspace/cxxabi.cpp:80
	
	return 0;
    8220:	e3a03000 	mov	r3, #0
/home/schenkj/os2022/sp/sources/userspace/cxxabi.cpp:81
}
    8224:	e1a00003 	mov	r0, r3
    8228:	e24bd004 	sub	sp, fp, #4
    822c:	e8bd8800 	pop	{fp, pc}
    8230:	00008f81 	andeq	r8, r0, r1, lsl #31
    8234:	00008f81 	andeq	r8, r0, r1, lsl #31

00008238 <_ZL5fputsjPKc>:
_ZL5fputsjPKc():
/home/schenkj/os2022/sp/sources/userspace/logger_task/main.cpp:14
 * 
 * Prijima vsechny udalosti od ostatnich tasku a oznamuje je skrz UART hostiteli
 **/

static void fputs(uint32_t file, const char* string)
{
    8238:	e92d4800 	push	{fp, lr}
    823c:	e28db004 	add	fp, sp, #4
    8240:	e24dd008 	sub	sp, sp, #8
    8244:	e50b0008 	str	r0, [fp, #-8]
    8248:	e50b100c 	str	r1, [fp, #-12]
/home/schenkj/os2022/sp/sources/userspace/logger_task/main.cpp:15
	write(file, string, strlen(string));
    824c:	e51b000c 	ldr	r0, [fp, #-12]
    8250:	eb00024e 	bl	8b90 <_Z6strlenPKc>
    8254:	e1a03000 	mov	r3, r0
    8258:	e1a02003 	mov	r2, r3
    825c:	e51b100c 	ldr	r1, [fp, #-12]
    8260:	e51b0008 	ldr	r0, [fp, #-8]
    8264:	eb000095 	bl	84c0 <_Z5writejPKcj>
/home/schenkj/os2022/sp/sources/userspace/logger_task/main.cpp:16
}
    8268:	e320f000 	nop	{0}
    826c:	e24bd004 	sub	sp, fp, #4
    8270:	e8bd8800 	pop	{fp, pc}

00008274 <main>:
main():
/home/schenkj/os2022/sp/sources/userspace/logger_task/main.cpp:19

int main(int argc, char** argv)
{
    8274:	e92d4800 	push	{fp, lr}
    8278:	e28db004 	add	fp, sp, #4
    827c:	e24dd048 	sub	sp, sp, #72	; 0x48
    8280:	e50b0048 	str	r0, [fp, #-72]	; 0xffffffb8
    8284:	e50b104c 	str	r1, [fp, #-76]	; 0xffffffb4
/home/schenkj/os2022/sp/sources/userspace/logger_task/main.cpp:20
	uint32_t uart_file = open("DEV:uart/0", NFile_Open_Mode::Write_Only);
    8288:	e3a01001 	mov	r1, #1
    828c:	e59f010c 	ldr	r0, [pc, #268]	; 83a0 <main+0x12c>
    8290:	eb000065 	bl	842c <_Z4openPKc15NFile_Open_Mode>
    8294:	e50b0008 	str	r0, [fp, #-8]
/home/schenkj/os2022/sp/sources/userspace/logger_task/main.cpp:23

	TUART_IOCtl_Params params;
	params.baud_rate = NUART_Baud_Rate::BR_115200;
    8298:	e59f3104 	ldr	r3, [pc, #260]	; 83a4 <main+0x130>
    829c:	e50b301c 	str	r3, [fp, #-28]	; 0xffffffe4
/home/schenkj/os2022/sp/sources/userspace/logger_task/main.cpp:24
	params.char_length = NUART_Char_Length::Char_8;
    82a0:	e3a03001 	mov	r3, #1
    82a4:	e50b3020 	str	r3, [fp, #-32]	; 0xffffffe0
/home/schenkj/os2022/sp/sources/userspace/logger_task/main.cpp:25
	ioctl(uart_file, NIOCtl_Operation::Set_Params, &params);
    82a8:	e24b3020 	sub	r3, fp, #32
    82ac:	e1a02003 	mov	r2, r3
    82b0:	e3a01001 	mov	r1, #1
    82b4:	e51b0008 	ldr	r0, [fp, #-8]
    82b8:	eb00009f 	bl	853c <_Z5ioctlj16NIOCtl_OperationPv>
/home/schenkj/os2022/sp/sources/userspace/logger_task/main.cpp:27

	fputs(uart_file, "UART task starting!");
    82bc:	e59f10e4 	ldr	r1, [pc, #228]	; 83a8 <main+0x134>
    82c0:	e51b0008 	ldr	r0, [fp, #-8]
    82c4:	ebffffdb 	bl	8238 <_ZL5fputsjPKc>
/home/schenkj/os2022/sp/sources/userspace/logger_task/main.cpp:31

	char buf[16];
	char tickbuf[16];
	bzero(buf, 16);
    82c8:	e24b3030 	sub	r3, fp, #48	; 0x30
    82cc:	e3a01010 	mov	r1, #16
    82d0:	e1a00003 	mov	r0, r3
    82d4:	eb000242 	bl	8be4 <_Z5bzeroPvi>
/home/schenkj/os2022/sp/sources/userspace/logger_task/main.cpp:32
	bzero(tickbuf, 16);
    82d8:	e24b3040 	sub	r3, fp, #64	; 0x40
    82dc:	e3a01010 	mov	r1, #16
    82e0:	e1a00003 	mov	r0, r3
    82e4:	eb00023e 	bl	8be4 <_Z5bzeroPvi>
/home/schenkj/os2022/sp/sources/userspace/logger_task/main.cpp:34

	uint32_t last_tick = 0;
    82e8:	e3a03000 	mov	r3, #0
    82ec:	e50b300c 	str	r3, [fp, #-12]
/home/schenkj/os2022/sp/sources/userspace/logger_task/main.cpp:36

	uint32_t logpipe = pipe("log", 32);
    82f0:	e3a01020 	mov	r1, #32
    82f4:	e59f00b0 	ldr	r0, [pc, #176]	; 83ac <main+0x138>
    82f8:	eb000119 	bl	8764 <_Z4pipePKcj>
    82fc:	e50b0010 	str	r0, [fp, #-16]
/home/schenkj/os2022/sp/sources/userspace/logger_task/main.cpp:40

	while (true)
	{
		wait(logpipe, 1, 0x1000);
    8300:	e3a02a01 	mov	r2, #4096	; 0x1000
    8304:	e3a01001 	mov	r1, #1
    8308:	e51b0010 	ldr	r0, [fp, #-16]
    830c:	eb0000af 	bl	85d0 <_Z4waitjjj>
/home/schenkj/os2022/sp/sources/userspace/logger_task/main.cpp:42

		uint32_t v = read(logpipe, buf, 15);
    8310:	e24b3030 	sub	r3, fp, #48	; 0x30
    8314:	e3a0200f 	mov	r2, #15
    8318:	e1a01003 	mov	r1, r3
    831c:	e51b0010 	ldr	r0, [fp, #-16]
    8320:	eb000052 	bl	8470 <_Z4readjPcj>
    8324:	e50b0014 	str	r0, [fp, #-20]	; 0xffffffec
/home/schenkj/os2022/sp/sources/userspace/logger_task/main.cpp:43
		if (v > 0)
    8328:	e51b3014 	ldr	r3, [fp, #-20]	; 0xffffffec
    832c:	e3530000 	cmp	r3, #0
    8330:	0afffff2 	beq	8300 <main+0x8c>
/home/schenkj/os2022/sp/sources/userspace/logger_task/main.cpp:45
		{
			buf[v] = '\0';
    8334:	e24b2030 	sub	r2, fp, #48	; 0x30
    8338:	e51b3014 	ldr	r3, [fp, #-20]	; 0xffffffec
    833c:	e0823003 	add	r3, r2, r3
    8340:	e3a02000 	mov	r2, #0
    8344:	e5c32000 	strb	r2, [r3]
/home/schenkj/os2022/sp/sources/userspace/logger_task/main.cpp:46
			fputs(uart_file, "\r\n[ ");
    8348:	e59f1060 	ldr	r1, [pc, #96]	; 83b0 <main+0x13c>
    834c:	e51b0008 	ldr	r0, [fp, #-8]
    8350:	ebffffb8 	bl	8238 <_ZL5fputsjPKc>
/home/schenkj/os2022/sp/sources/userspace/logger_task/main.cpp:47
			uint32_t tick = get_tick_count();
    8354:	eb0000d5 	bl	86b0 <_Z14get_tick_countv>
    8358:	e50b0018 	str	r0, [fp, #-24]	; 0xffffffe8
/home/schenkj/os2022/sp/sources/userspace/logger_task/main.cpp:48
			itoa(tick, tickbuf, 16);
    835c:	e24b3040 	sub	r3, fp, #64	; 0x40
    8360:	e3a02010 	mov	r2, #16
    8364:	e1a01003 	mov	r1, r3
    8368:	e51b0018 	ldr	r0, [fp, #-24]	; 0xffffffe8
    836c:	eb000128 	bl	8814 <_Z4itoajPcj>
/home/schenkj/os2022/sp/sources/userspace/logger_task/main.cpp:49
			fputs(uart_file, tickbuf);
    8370:	e24b3040 	sub	r3, fp, #64	; 0x40
    8374:	e1a01003 	mov	r1, r3
    8378:	e51b0008 	ldr	r0, [fp, #-8]
    837c:	ebffffad 	bl	8238 <_ZL5fputsjPKc>
/home/schenkj/os2022/sp/sources/userspace/logger_task/main.cpp:50
			fputs(uart_file, "]: ");
    8380:	e59f102c 	ldr	r1, [pc, #44]	; 83b4 <main+0x140>
    8384:	e51b0008 	ldr	r0, [fp, #-8]
    8388:	ebffffaa 	bl	8238 <_ZL5fputsjPKc>
/home/schenkj/os2022/sp/sources/userspace/logger_task/main.cpp:51
			fputs(uart_file, buf);
    838c:	e24b3030 	sub	r3, fp, #48	; 0x30
    8390:	e1a01003 	mov	r1, r3
    8394:	e51b0008 	ldr	r0, [fp, #-8]
    8398:	ebffffa6 	bl	8238 <_ZL5fputsjPKc>
/home/schenkj/os2022/sp/sources/userspace/logger_task/main.cpp:53
		}
	}
    839c:	eaffffd7 	b	8300 <main+0x8c>
    83a0:	00008f08 	andeq	r8, r0, r8, lsl #30
    83a4:	0001c200 	andeq	ip, r1, r0, lsl #4
    83a8:	00008f14 	andeq	r8, r0, r4, lsl pc
    83ac:	00008f28 	andeq	r8, r0, r8, lsr #30
    83b0:	00008f2c 	andeq	r8, r0, ip, lsr #30
    83b4:	00008f34 	andeq	r8, r0, r4, lsr pc

000083b8 <_Z6getpidv>:
_Z6getpidv():
/home/schenkj/os2022/sp/sources/stdlib/src/stdfile.cpp:5
#include <stdfile.h>
#include <stdstring.h>

uint32_t getpid()
{
    83b8:	e52db004 	push	{fp}		; (str fp, [sp, #-4]!)
    83bc:	e28db000 	add	fp, sp, #0
    83c0:	e24dd00c 	sub	sp, sp, #12
/home/schenkj/os2022/sp/sources/stdlib/src/stdfile.cpp:8
    uint32_t pid;

    asm volatile("swi 0");
    83c4:	ef000000 	svc	0x00000000
/home/schenkj/os2022/sp/sources/stdlib/src/stdfile.cpp:9
    asm volatile("mov %0, r0" : "=r" (pid));
    83c8:	e1a03000 	mov	r3, r0
    83cc:	e50b3008 	str	r3, [fp, #-8]
/home/schenkj/os2022/sp/sources/stdlib/src/stdfile.cpp:11

    return pid;
    83d0:	e51b3008 	ldr	r3, [fp, #-8]
/home/schenkj/os2022/sp/sources/stdlib/src/stdfile.cpp:12
}
    83d4:	e1a00003 	mov	r0, r3
    83d8:	e28bd000 	add	sp, fp, #0
    83dc:	e49db004 	pop	{fp}		; (ldr fp, [sp], #4)
    83e0:	e12fff1e 	bx	lr

000083e4 <_Z9terminatei>:
_Z9terminatei():
/home/schenkj/os2022/sp/sources/stdlib/src/stdfile.cpp:15

void terminate(int exitcode)
{
    83e4:	e52db004 	push	{fp}		; (str fp, [sp, #-4]!)
    83e8:	e28db000 	add	fp, sp, #0
    83ec:	e24dd00c 	sub	sp, sp, #12
    83f0:	e50b0008 	str	r0, [fp, #-8]
/home/schenkj/os2022/sp/sources/stdlib/src/stdfile.cpp:16
    asm volatile("mov r0, %0" : : "r" (exitcode));
    83f4:	e51b3008 	ldr	r3, [fp, #-8]
    83f8:	e1a00003 	mov	r0, r3
/home/schenkj/os2022/sp/sources/stdlib/src/stdfile.cpp:17
    asm volatile("swi 1");
    83fc:	ef000001 	svc	0x00000001
/home/schenkj/os2022/sp/sources/stdlib/src/stdfile.cpp:18
}
    8400:	e320f000 	nop	{0}
    8404:	e28bd000 	add	sp, fp, #0
    8408:	e49db004 	pop	{fp}		; (ldr fp, [sp], #4)
    840c:	e12fff1e 	bx	lr

00008410 <_Z11sched_yieldv>:
_Z11sched_yieldv():
/home/schenkj/os2022/sp/sources/stdlib/src/stdfile.cpp:21

void sched_yield()
{
    8410:	e52db004 	push	{fp}		; (str fp, [sp, #-4]!)
    8414:	e28db000 	add	fp, sp, #0
/home/schenkj/os2022/sp/sources/stdlib/src/stdfile.cpp:22
    asm volatile("swi 2");
    8418:	ef000002 	svc	0x00000002
/home/schenkj/os2022/sp/sources/stdlib/src/stdfile.cpp:23
}
    841c:	e320f000 	nop	{0}
    8420:	e28bd000 	add	sp, fp, #0
    8424:	e49db004 	pop	{fp}		; (ldr fp, [sp], #4)
    8428:	e12fff1e 	bx	lr

0000842c <_Z4openPKc15NFile_Open_Mode>:
_Z4openPKc15NFile_Open_Mode():
/home/schenkj/os2022/sp/sources/stdlib/src/stdfile.cpp:26

uint32_t open(const char* filename, NFile_Open_Mode mode)
{
    842c:	e52db004 	push	{fp}		; (str fp, [sp, #-4]!)
    8430:	e28db000 	add	fp, sp, #0
    8434:	e24dd014 	sub	sp, sp, #20
    8438:	e50b0010 	str	r0, [fp, #-16]
    843c:	e50b1014 	str	r1, [fp, #-20]	; 0xffffffec
/home/schenkj/os2022/sp/sources/stdlib/src/stdfile.cpp:29
    uint32_t file;

    asm volatile("mov r0, %0" : : "r" (filename));
    8440:	e51b3010 	ldr	r3, [fp, #-16]
    8444:	e1a00003 	mov	r0, r3
/home/schenkj/os2022/sp/sources/stdlib/src/stdfile.cpp:30
    asm volatile("mov r1, %0" : : "r" (mode));
    8448:	e51b3014 	ldr	r3, [fp, #-20]	; 0xffffffec
    844c:	e1a01003 	mov	r1, r3
/home/schenkj/os2022/sp/sources/stdlib/src/stdfile.cpp:31
    asm volatile("swi 64");
    8450:	ef000040 	svc	0x00000040
/home/schenkj/os2022/sp/sources/stdlib/src/stdfile.cpp:32
    asm volatile("mov %0, r0" : "=r" (file));
    8454:	e1a03000 	mov	r3, r0
    8458:	e50b3008 	str	r3, [fp, #-8]
/home/schenkj/os2022/sp/sources/stdlib/src/stdfile.cpp:34

    return file;
    845c:	e51b3008 	ldr	r3, [fp, #-8]
/home/schenkj/os2022/sp/sources/stdlib/src/stdfile.cpp:35
}
    8460:	e1a00003 	mov	r0, r3
    8464:	e28bd000 	add	sp, fp, #0
    8468:	e49db004 	pop	{fp}		; (ldr fp, [sp], #4)
    846c:	e12fff1e 	bx	lr

00008470 <_Z4readjPcj>:
_Z4readjPcj():
/home/schenkj/os2022/sp/sources/stdlib/src/stdfile.cpp:38

uint32_t read(uint32_t file, char* const buffer, uint32_t size)
{
    8470:	e52db004 	push	{fp}		; (str fp, [sp, #-4]!)
    8474:	e28db000 	add	fp, sp, #0
    8478:	e24dd01c 	sub	sp, sp, #28
    847c:	e50b0010 	str	r0, [fp, #-16]
    8480:	e50b1014 	str	r1, [fp, #-20]	; 0xffffffec
    8484:	e50b2018 	str	r2, [fp, #-24]	; 0xffffffe8
/home/schenkj/os2022/sp/sources/stdlib/src/stdfile.cpp:41
    uint32_t rdnum;

    asm volatile("mov r0, %0" : : "r" (file));
    8488:	e51b3010 	ldr	r3, [fp, #-16]
    848c:	e1a00003 	mov	r0, r3
/home/schenkj/os2022/sp/sources/stdlib/src/stdfile.cpp:42
    asm volatile("mov r1, %0" : : "r" (buffer));
    8490:	e51b3014 	ldr	r3, [fp, #-20]	; 0xffffffec
    8494:	e1a01003 	mov	r1, r3
/home/schenkj/os2022/sp/sources/stdlib/src/stdfile.cpp:43
    asm volatile("mov r2, %0" : : "r" (size));
    8498:	e51b3018 	ldr	r3, [fp, #-24]	; 0xffffffe8
    849c:	e1a02003 	mov	r2, r3
/home/schenkj/os2022/sp/sources/stdlib/src/stdfile.cpp:44
    asm volatile("swi 65");
    84a0:	ef000041 	svc	0x00000041
/home/schenkj/os2022/sp/sources/stdlib/src/stdfile.cpp:45
    asm volatile("mov %0, r0" : "=r" (rdnum));
    84a4:	e1a03000 	mov	r3, r0
    84a8:	e50b3008 	str	r3, [fp, #-8]
/home/schenkj/os2022/sp/sources/stdlib/src/stdfile.cpp:47

    return rdnum;
    84ac:	e51b3008 	ldr	r3, [fp, #-8]
/home/schenkj/os2022/sp/sources/stdlib/src/stdfile.cpp:48
}
    84b0:	e1a00003 	mov	r0, r3
    84b4:	e28bd000 	add	sp, fp, #0
    84b8:	e49db004 	pop	{fp}		; (ldr fp, [sp], #4)
    84bc:	e12fff1e 	bx	lr

000084c0 <_Z5writejPKcj>:
_Z5writejPKcj():
/home/schenkj/os2022/sp/sources/stdlib/src/stdfile.cpp:51

uint32_t write(uint32_t file, const char* buffer, uint32_t size)
{
    84c0:	e52db004 	push	{fp}		; (str fp, [sp, #-4]!)
    84c4:	e28db000 	add	fp, sp, #0
    84c8:	e24dd01c 	sub	sp, sp, #28
    84cc:	e50b0010 	str	r0, [fp, #-16]
    84d0:	e50b1014 	str	r1, [fp, #-20]	; 0xffffffec
    84d4:	e50b2018 	str	r2, [fp, #-24]	; 0xffffffe8
/home/schenkj/os2022/sp/sources/stdlib/src/stdfile.cpp:54
    uint32_t wrnum;

    asm volatile("mov r0, %0" : : "r" (file));
    84d8:	e51b3010 	ldr	r3, [fp, #-16]
    84dc:	e1a00003 	mov	r0, r3
/home/schenkj/os2022/sp/sources/stdlib/src/stdfile.cpp:55
    asm volatile("mov r1, %0" : : "r" (buffer));
    84e0:	e51b3014 	ldr	r3, [fp, #-20]	; 0xffffffec
    84e4:	e1a01003 	mov	r1, r3
/home/schenkj/os2022/sp/sources/stdlib/src/stdfile.cpp:56
    asm volatile("mov r2, %0" : : "r" (size));
    84e8:	e51b3018 	ldr	r3, [fp, #-24]	; 0xffffffe8
    84ec:	e1a02003 	mov	r2, r3
/home/schenkj/os2022/sp/sources/stdlib/src/stdfile.cpp:57
    asm volatile("swi 66");
    84f0:	ef000042 	svc	0x00000042
/home/schenkj/os2022/sp/sources/stdlib/src/stdfile.cpp:58
    asm volatile("mov %0, r0" : "=r" (wrnum));
    84f4:	e1a03000 	mov	r3, r0
    84f8:	e50b3008 	str	r3, [fp, #-8]
/home/schenkj/os2022/sp/sources/stdlib/src/stdfile.cpp:60

    return wrnum;
    84fc:	e51b3008 	ldr	r3, [fp, #-8]
/home/schenkj/os2022/sp/sources/stdlib/src/stdfile.cpp:61
}
    8500:	e1a00003 	mov	r0, r3
    8504:	e28bd000 	add	sp, fp, #0
    8508:	e49db004 	pop	{fp}		; (ldr fp, [sp], #4)
    850c:	e12fff1e 	bx	lr

00008510 <_Z5closej>:
_Z5closej():
/home/schenkj/os2022/sp/sources/stdlib/src/stdfile.cpp:64

void close(uint32_t file)
{
    8510:	e52db004 	push	{fp}		; (str fp, [sp, #-4]!)
    8514:	e28db000 	add	fp, sp, #0
    8518:	e24dd00c 	sub	sp, sp, #12
    851c:	e50b0008 	str	r0, [fp, #-8]
/home/schenkj/os2022/sp/sources/stdlib/src/stdfile.cpp:65
    asm volatile("mov r0, %0" : : "r" (file));
    8520:	e51b3008 	ldr	r3, [fp, #-8]
    8524:	e1a00003 	mov	r0, r3
/home/schenkj/os2022/sp/sources/stdlib/src/stdfile.cpp:66
    asm volatile("swi 67");
    8528:	ef000043 	svc	0x00000043
/home/schenkj/os2022/sp/sources/stdlib/src/stdfile.cpp:67
}
    852c:	e320f000 	nop	{0}
    8530:	e28bd000 	add	sp, fp, #0
    8534:	e49db004 	pop	{fp}		; (ldr fp, [sp], #4)
    8538:	e12fff1e 	bx	lr

0000853c <_Z5ioctlj16NIOCtl_OperationPv>:
_Z5ioctlj16NIOCtl_OperationPv():
/home/schenkj/os2022/sp/sources/stdlib/src/stdfile.cpp:70

uint32_t ioctl(uint32_t file, NIOCtl_Operation operation, void* param)
{
    853c:	e52db004 	push	{fp}		; (str fp, [sp, #-4]!)
    8540:	e28db000 	add	fp, sp, #0
    8544:	e24dd01c 	sub	sp, sp, #28
    8548:	e50b0010 	str	r0, [fp, #-16]
    854c:	e50b1014 	str	r1, [fp, #-20]	; 0xffffffec
    8550:	e50b2018 	str	r2, [fp, #-24]	; 0xffffffe8
/home/schenkj/os2022/sp/sources/stdlib/src/stdfile.cpp:73
    uint32_t retcode;

    asm volatile("mov r0, %0" : : "r" (file));
    8554:	e51b3010 	ldr	r3, [fp, #-16]
    8558:	e1a00003 	mov	r0, r3
/home/schenkj/os2022/sp/sources/stdlib/src/stdfile.cpp:74
    asm volatile("mov r1, %0" : : "r" (operation));
    855c:	e51b3014 	ldr	r3, [fp, #-20]	; 0xffffffec
    8560:	e1a01003 	mov	r1, r3
/home/schenkj/os2022/sp/sources/stdlib/src/stdfile.cpp:75
    asm volatile("mov r2, %0" : : "r" (param));
    8564:	e51b3018 	ldr	r3, [fp, #-24]	; 0xffffffe8
    8568:	e1a02003 	mov	r2, r3
/home/schenkj/os2022/sp/sources/stdlib/src/stdfile.cpp:76
    asm volatile("swi 68");
    856c:	ef000044 	svc	0x00000044
/home/schenkj/os2022/sp/sources/stdlib/src/stdfile.cpp:77
    asm volatile("mov %0, r0" : "=r" (retcode));
    8570:	e1a03000 	mov	r3, r0
    8574:	e50b3008 	str	r3, [fp, #-8]
/home/schenkj/os2022/sp/sources/stdlib/src/stdfile.cpp:79

    return retcode;
    8578:	e51b3008 	ldr	r3, [fp, #-8]
/home/schenkj/os2022/sp/sources/stdlib/src/stdfile.cpp:80
}
    857c:	e1a00003 	mov	r0, r3
    8580:	e28bd000 	add	sp, fp, #0
    8584:	e49db004 	pop	{fp}		; (ldr fp, [sp], #4)
    8588:	e12fff1e 	bx	lr

0000858c <_Z6notifyjj>:
_Z6notifyjj():
/home/schenkj/os2022/sp/sources/stdlib/src/stdfile.cpp:83

uint32_t notify(uint32_t file, uint32_t count)
{
    858c:	e52db004 	push	{fp}		; (str fp, [sp, #-4]!)
    8590:	e28db000 	add	fp, sp, #0
    8594:	e24dd014 	sub	sp, sp, #20
    8598:	e50b0010 	str	r0, [fp, #-16]
    859c:	e50b1014 	str	r1, [fp, #-20]	; 0xffffffec
/home/schenkj/os2022/sp/sources/stdlib/src/stdfile.cpp:86
    uint32_t retcnt;

    asm volatile("mov r0, %0" : : "r" (file));
    85a0:	e51b3010 	ldr	r3, [fp, #-16]
    85a4:	e1a00003 	mov	r0, r3
/home/schenkj/os2022/sp/sources/stdlib/src/stdfile.cpp:87
    asm volatile("mov r1, %0" : : "r" (count));
    85a8:	e51b3014 	ldr	r3, [fp, #-20]	; 0xffffffec
    85ac:	e1a01003 	mov	r1, r3
/home/schenkj/os2022/sp/sources/stdlib/src/stdfile.cpp:88
    asm volatile("swi 69");
    85b0:	ef000045 	svc	0x00000045
/home/schenkj/os2022/sp/sources/stdlib/src/stdfile.cpp:89
    asm volatile("mov %0, r0" : "=r" (retcnt));
    85b4:	e1a03000 	mov	r3, r0
    85b8:	e50b3008 	str	r3, [fp, #-8]
/home/schenkj/os2022/sp/sources/stdlib/src/stdfile.cpp:91

    return retcnt;
    85bc:	e51b3008 	ldr	r3, [fp, #-8]
/home/schenkj/os2022/sp/sources/stdlib/src/stdfile.cpp:92
}
    85c0:	e1a00003 	mov	r0, r3
    85c4:	e28bd000 	add	sp, fp, #0
    85c8:	e49db004 	pop	{fp}		; (ldr fp, [sp], #4)
    85cc:	e12fff1e 	bx	lr

000085d0 <_Z4waitjjj>:
_Z4waitjjj():
/home/schenkj/os2022/sp/sources/stdlib/src/stdfile.cpp:95

NSWI_Result_Code wait(uint32_t file, uint32_t count, uint32_t notified_deadline)
{
    85d0:	e52db004 	push	{fp}		; (str fp, [sp, #-4]!)
    85d4:	e28db000 	add	fp, sp, #0
    85d8:	e24dd01c 	sub	sp, sp, #28
    85dc:	e50b0010 	str	r0, [fp, #-16]
    85e0:	e50b1014 	str	r1, [fp, #-20]	; 0xffffffec
    85e4:	e50b2018 	str	r2, [fp, #-24]	; 0xffffffe8
/home/schenkj/os2022/sp/sources/stdlib/src/stdfile.cpp:98
    NSWI_Result_Code retcode;

    asm volatile("mov r0, %0" : : "r" (file));
    85e8:	e51b3010 	ldr	r3, [fp, #-16]
    85ec:	e1a00003 	mov	r0, r3
/home/schenkj/os2022/sp/sources/stdlib/src/stdfile.cpp:99
    asm volatile("mov r1, %0" : : "r" (count));
    85f0:	e51b3014 	ldr	r3, [fp, #-20]	; 0xffffffec
    85f4:	e1a01003 	mov	r1, r3
/home/schenkj/os2022/sp/sources/stdlib/src/stdfile.cpp:100
    asm volatile("mov r2, %0" : : "r" (notified_deadline));
    85f8:	e51b3018 	ldr	r3, [fp, #-24]	; 0xffffffe8
    85fc:	e1a02003 	mov	r2, r3
/home/schenkj/os2022/sp/sources/stdlib/src/stdfile.cpp:101
    asm volatile("swi 70");
    8600:	ef000046 	svc	0x00000046
/home/schenkj/os2022/sp/sources/stdlib/src/stdfile.cpp:102
    asm volatile("mov %0, r0" : "=r" (retcode));
    8604:	e1a03000 	mov	r3, r0
    8608:	e50b3008 	str	r3, [fp, #-8]
/home/schenkj/os2022/sp/sources/stdlib/src/stdfile.cpp:104

    return retcode;
    860c:	e51b3008 	ldr	r3, [fp, #-8]
/home/schenkj/os2022/sp/sources/stdlib/src/stdfile.cpp:105
}
    8610:	e1a00003 	mov	r0, r3
    8614:	e28bd000 	add	sp, fp, #0
    8618:	e49db004 	pop	{fp}		; (ldr fp, [sp], #4)
    861c:	e12fff1e 	bx	lr

00008620 <_Z5sleepjj>:
_Z5sleepjj():
/home/schenkj/os2022/sp/sources/stdlib/src/stdfile.cpp:108

bool sleep(uint32_t ticks, uint32_t notified_deadline)
{
    8620:	e52db004 	push	{fp}		; (str fp, [sp, #-4]!)
    8624:	e28db000 	add	fp, sp, #0
    8628:	e24dd014 	sub	sp, sp, #20
    862c:	e50b0010 	str	r0, [fp, #-16]
    8630:	e50b1014 	str	r1, [fp, #-20]	; 0xffffffec
/home/schenkj/os2022/sp/sources/stdlib/src/stdfile.cpp:111
    uint32_t retcode;

    asm volatile("mov r0, %0" : : "r" (ticks));
    8634:	e51b3010 	ldr	r3, [fp, #-16]
    8638:	e1a00003 	mov	r0, r3
/home/schenkj/os2022/sp/sources/stdlib/src/stdfile.cpp:112
    asm volatile("mov r1, %0" : : "r" (notified_deadline));
    863c:	e51b3014 	ldr	r3, [fp, #-20]	; 0xffffffec
    8640:	e1a01003 	mov	r1, r3
/home/schenkj/os2022/sp/sources/stdlib/src/stdfile.cpp:113
    asm volatile("swi 3");
    8644:	ef000003 	svc	0x00000003
/home/schenkj/os2022/sp/sources/stdlib/src/stdfile.cpp:114
    asm volatile("mov %0, r0" : "=r" (retcode));
    8648:	e1a03000 	mov	r3, r0
    864c:	e50b3008 	str	r3, [fp, #-8]
/home/schenkj/os2022/sp/sources/stdlib/src/stdfile.cpp:116

    return retcode;
    8650:	e51b3008 	ldr	r3, [fp, #-8]
    8654:	e3530000 	cmp	r3, #0
    8658:	13a03001 	movne	r3, #1
    865c:	03a03000 	moveq	r3, #0
    8660:	e6ef3073 	uxtb	r3, r3
/home/schenkj/os2022/sp/sources/stdlib/src/stdfile.cpp:117
}
    8664:	e1a00003 	mov	r0, r3
    8668:	e28bd000 	add	sp, fp, #0
    866c:	e49db004 	pop	{fp}		; (ldr fp, [sp], #4)
    8670:	e12fff1e 	bx	lr

00008674 <_Z24get_active_process_countv>:
_Z24get_active_process_countv():
/home/schenkj/os2022/sp/sources/stdlib/src/stdfile.cpp:120

uint32_t get_active_process_count()
{
    8674:	e52db004 	push	{fp}		; (str fp, [sp, #-4]!)
    8678:	e28db000 	add	fp, sp, #0
    867c:	e24dd00c 	sub	sp, sp, #12
/home/schenkj/os2022/sp/sources/stdlib/src/stdfile.cpp:121
    const NGet_Sched_Info_Type req = NGet_Sched_Info_Type::Active_Process_Count;
    8680:	e3a03000 	mov	r3, #0
    8684:	e50b3008 	str	r3, [fp, #-8]
/home/schenkj/os2022/sp/sources/stdlib/src/stdfile.cpp:124
    uint32_t retval;

    asm volatile("mov r0, %0" : : "r" (req));
    8688:	e3a03000 	mov	r3, #0
    868c:	e1a00003 	mov	r0, r3
/home/schenkj/os2022/sp/sources/stdlib/src/stdfile.cpp:125
    asm volatile("mov r1, %0" : : "r" (&retval));
    8690:	e24b300c 	sub	r3, fp, #12
    8694:	e1a01003 	mov	r1, r3
/home/schenkj/os2022/sp/sources/stdlib/src/stdfile.cpp:126
    asm volatile("swi 4");
    8698:	ef000004 	svc	0x00000004
/home/schenkj/os2022/sp/sources/stdlib/src/stdfile.cpp:128

    return retval;
    869c:	e51b300c 	ldr	r3, [fp, #-12]
/home/schenkj/os2022/sp/sources/stdlib/src/stdfile.cpp:129
}
    86a0:	e1a00003 	mov	r0, r3
    86a4:	e28bd000 	add	sp, fp, #0
    86a8:	e49db004 	pop	{fp}		; (ldr fp, [sp], #4)
    86ac:	e12fff1e 	bx	lr

000086b0 <_Z14get_tick_countv>:
_Z14get_tick_countv():
/home/schenkj/os2022/sp/sources/stdlib/src/stdfile.cpp:132

uint32_t get_tick_count()
{
    86b0:	e52db004 	push	{fp}		; (str fp, [sp, #-4]!)
    86b4:	e28db000 	add	fp, sp, #0
    86b8:	e24dd00c 	sub	sp, sp, #12
/home/schenkj/os2022/sp/sources/stdlib/src/stdfile.cpp:133
    const NGet_Sched_Info_Type req = NGet_Sched_Info_Type::Tick_Count;
    86bc:	e3a03001 	mov	r3, #1
    86c0:	e50b3008 	str	r3, [fp, #-8]
/home/schenkj/os2022/sp/sources/stdlib/src/stdfile.cpp:136
    uint32_t retval;

    asm volatile("mov r0, %0" : : "r" (req));
    86c4:	e3a03001 	mov	r3, #1
    86c8:	e1a00003 	mov	r0, r3
/home/schenkj/os2022/sp/sources/stdlib/src/stdfile.cpp:137
    asm volatile("mov r1, %0" : : "r" (&retval));
    86cc:	e24b300c 	sub	r3, fp, #12
    86d0:	e1a01003 	mov	r1, r3
/home/schenkj/os2022/sp/sources/stdlib/src/stdfile.cpp:138
    asm volatile("swi 4");
    86d4:	ef000004 	svc	0x00000004
/home/schenkj/os2022/sp/sources/stdlib/src/stdfile.cpp:140

    return retval;
    86d8:	e51b300c 	ldr	r3, [fp, #-12]
/home/schenkj/os2022/sp/sources/stdlib/src/stdfile.cpp:141
}
    86dc:	e1a00003 	mov	r0, r3
    86e0:	e28bd000 	add	sp, fp, #0
    86e4:	e49db004 	pop	{fp}		; (ldr fp, [sp], #4)
    86e8:	e12fff1e 	bx	lr

000086ec <_Z17set_task_deadlinej>:
_Z17set_task_deadlinej():
/home/schenkj/os2022/sp/sources/stdlib/src/stdfile.cpp:144

void set_task_deadline(uint32_t tick_count_required)
{
    86ec:	e52db004 	push	{fp}		; (str fp, [sp, #-4]!)
    86f0:	e28db000 	add	fp, sp, #0
    86f4:	e24dd014 	sub	sp, sp, #20
    86f8:	e50b0010 	str	r0, [fp, #-16]
/home/schenkj/os2022/sp/sources/stdlib/src/stdfile.cpp:145
    const NDeadline_Subservice req = NDeadline_Subservice::Set_Relative;
    86fc:	e3a03000 	mov	r3, #0
    8700:	e50b3008 	str	r3, [fp, #-8]
/home/schenkj/os2022/sp/sources/stdlib/src/stdfile.cpp:147

    asm volatile("mov r0, %0" : : "r" (req));
    8704:	e3a03000 	mov	r3, #0
    8708:	e1a00003 	mov	r0, r3
/home/schenkj/os2022/sp/sources/stdlib/src/stdfile.cpp:148
    asm volatile("mov r1, %0" : : "r" (&tick_count_required));
    870c:	e24b3010 	sub	r3, fp, #16
    8710:	e1a01003 	mov	r1, r3
/home/schenkj/os2022/sp/sources/stdlib/src/stdfile.cpp:149
    asm volatile("swi 5");
    8714:	ef000005 	svc	0x00000005
/home/schenkj/os2022/sp/sources/stdlib/src/stdfile.cpp:150
}
    8718:	e320f000 	nop	{0}
    871c:	e28bd000 	add	sp, fp, #0
    8720:	e49db004 	pop	{fp}		; (ldr fp, [sp], #4)
    8724:	e12fff1e 	bx	lr

00008728 <_Z26get_task_ticks_to_deadlinev>:
_Z26get_task_ticks_to_deadlinev():
/home/schenkj/os2022/sp/sources/stdlib/src/stdfile.cpp:153

uint32_t get_task_ticks_to_deadline()
{
    8728:	e52db004 	push	{fp}		; (str fp, [sp, #-4]!)
    872c:	e28db000 	add	fp, sp, #0
    8730:	e24dd00c 	sub	sp, sp, #12
/home/schenkj/os2022/sp/sources/stdlib/src/stdfile.cpp:154
    const NDeadline_Subservice req = NDeadline_Subservice::Get_Remaining;
    8734:	e3a03001 	mov	r3, #1
    8738:	e50b3008 	str	r3, [fp, #-8]
/home/schenkj/os2022/sp/sources/stdlib/src/stdfile.cpp:157
    uint32_t ticks;

    asm volatile("mov r0, %0" : : "r" (req));
    873c:	e3a03001 	mov	r3, #1
    8740:	e1a00003 	mov	r0, r3
/home/schenkj/os2022/sp/sources/stdlib/src/stdfile.cpp:158
    asm volatile("mov r1, %0" : : "r" (&ticks));
    8744:	e24b300c 	sub	r3, fp, #12
    8748:	e1a01003 	mov	r1, r3
/home/schenkj/os2022/sp/sources/stdlib/src/stdfile.cpp:159
    asm volatile("swi 5");
    874c:	ef000005 	svc	0x00000005
/home/schenkj/os2022/sp/sources/stdlib/src/stdfile.cpp:161

    return ticks;
    8750:	e51b300c 	ldr	r3, [fp, #-12]
/home/schenkj/os2022/sp/sources/stdlib/src/stdfile.cpp:162
}
    8754:	e1a00003 	mov	r0, r3
    8758:	e28bd000 	add	sp, fp, #0
    875c:	e49db004 	pop	{fp}		; (ldr fp, [sp], #4)
    8760:	e12fff1e 	bx	lr

00008764 <_Z4pipePKcj>:
_Z4pipePKcj():
/home/schenkj/os2022/sp/sources/stdlib/src/stdfile.cpp:167

const char Pipe_File_Prefix[] = "SYS:pipe/";

uint32_t pipe(const char* name, uint32_t buf_size)
{
    8764:	e92d4800 	push	{fp, lr}
    8768:	e28db004 	add	fp, sp, #4
    876c:	e24dd050 	sub	sp, sp, #80	; 0x50
    8770:	e50b0050 	str	r0, [fp, #-80]	; 0xffffffb0
    8774:	e50b1054 	str	r1, [fp, #-84]	; 0xffffffac
/home/schenkj/os2022/sp/sources/stdlib/src/stdfile.cpp:169
    char fname[64];
    strncpy(fname, Pipe_File_Prefix, sizeof(Pipe_File_Prefix));
    8778:	e24b3048 	sub	r3, fp, #72	; 0x48
    877c:	e3a0200a 	mov	r2, #10
    8780:	e59f1088 	ldr	r1, [pc, #136]	; 8810 <_Z4pipePKcj+0xac>
    8784:	e1a00003 	mov	r0, r3
    8788:	eb0000a5 	bl	8a24 <_Z7strncpyPcPKci>
/home/schenkj/os2022/sp/sources/stdlib/src/stdfile.cpp:170
    strncpy(fname + sizeof(Pipe_File_Prefix), name, sizeof(fname) - sizeof(Pipe_File_Prefix) - 1);
    878c:	e24b3048 	sub	r3, fp, #72	; 0x48
    8790:	e283300a 	add	r3, r3, #10
    8794:	e3a02035 	mov	r2, #53	; 0x35
    8798:	e51b1050 	ldr	r1, [fp, #-80]	; 0xffffffb0
    879c:	e1a00003 	mov	r0, r3
    87a0:	eb00009f 	bl	8a24 <_Z7strncpyPcPKci>
/home/schenkj/os2022/sp/sources/stdlib/src/stdfile.cpp:172

    int ncur = sizeof(Pipe_File_Prefix) + strlen(name);
    87a4:	e51b0050 	ldr	r0, [fp, #-80]	; 0xffffffb0
    87a8:	eb0000f8 	bl	8b90 <_Z6strlenPKc>
    87ac:	e1a03000 	mov	r3, r0
    87b0:	e283300a 	add	r3, r3, #10
    87b4:	e50b3008 	str	r3, [fp, #-8]
/home/schenkj/os2022/sp/sources/stdlib/src/stdfile.cpp:174

    fname[ncur++] = '#';
    87b8:	e51b3008 	ldr	r3, [fp, #-8]
    87bc:	e2832001 	add	r2, r3, #1
    87c0:	e50b2008 	str	r2, [fp, #-8]
    87c4:	e24b2004 	sub	r2, fp, #4
    87c8:	e0823003 	add	r3, r2, r3
    87cc:	e3a02023 	mov	r2, #35	; 0x23
    87d0:	e5432044 	strb	r2, [r3, #-68]	; 0xffffffbc
/home/schenkj/os2022/sp/sources/stdlib/src/stdfile.cpp:176

    itoa(buf_size, &fname[ncur], 10);
    87d4:	e24b2048 	sub	r2, fp, #72	; 0x48
    87d8:	e51b3008 	ldr	r3, [fp, #-8]
    87dc:	e0823003 	add	r3, r2, r3
    87e0:	e3a0200a 	mov	r2, #10
    87e4:	e1a01003 	mov	r1, r3
    87e8:	e51b0054 	ldr	r0, [fp, #-84]	; 0xffffffac
    87ec:	eb000008 	bl	8814 <_Z4itoajPcj>
/home/schenkj/os2022/sp/sources/stdlib/src/stdfile.cpp:178

    return open(fname, NFile_Open_Mode::Read_Write);
    87f0:	e24b3048 	sub	r3, fp, #72	; 0x48
    87f4:	e3a01002 	mov	r1, #2
    87f8:	e1a00003 	mov	r0, r3
    87fc:	ebffff0a 	bl	842c <_Z4openPKc15NFile_Open_Mode>
    8800:	e1a03000 	mov	r3, r0
/home/schenkj/os2022/sp/sources/stdlib/src/stdfile.cpp:179
}
    8804:	e1a00003 	mov	r0, r3
    8808:	e24bd004 	sub	sp, fp, #4
    880c:	e8bd8800 	pop	{fp, pc}
    8810:	00008f64 	andeq	r8, r0, r4, ror #30

00008814 <_Z4itoajPcj>:
_Z4itoajPcj():
/home/schenkj/os2022/sp/sources/stdlib/src/stdstring.cpp:9
{
    const char CharConvArr[] = "0123456789ABCDEF";
}

void itoa(unsigned int input, char* output, unsigned int base)
{
    8814:	e92d4800 	push	{fp, lr}
    8818:	e28db004 	add	fp, sp, #4
    881c:	e24dd020 	sub	sp, sp, #32
    8820:	e50b0018 	str	r0, [fp, #-24]	; 0xffffffe8
    8824:	e50b101c 	str	r1, [fp, #-28]	; 0xffffffe4
    8828:	e50b2020 	str	r2, [fp, #-32]	; 0xffffffe0
/home/schenkj/os2022/sp/sources/stdlib/src/stdstring.cpp:10
	int i = 0;
    882c:	e3a03000 	mov	r3, #0
    8830:	e50b3008 	str	r3, [fp, #-8]
/home/schenkj/os2022/sp/sources/stdlib/src/stdstring.cpp:12

	while (input > 0)
    8834:	e51b3018 	ldr	r3, [fp, #-24]	; 0xffffffe8
    8838:	e3530000 	cmp	r3, #0
    883c:	0a000014 	beq	8894 <_Z4itoajPcj+0x80>
/home/schenkj/os2022/sp/sources/stdlib/src/stdstring.cpp:14
	{
		output[i] = CharConvArr[input % base];
    8840:	e51b3018 	ldr	r3, [fp, #-24]	; 0xffffffe8
    8844:	e51b1020 	ldr	r1, [fp, #-32]	; 0xffffffe0
    8848:	e1a00003 	mov	r0, r3
    884c:	eb000199 	bl	8eb8 <__aeabi_uidivmod>
    8850:	e1a03001 	mov	r3, r1
    8854:	e1a01003 	mov	r1, r3
    8858:	e51b3008 	ldr	r3, [fp, #-8]
    885c:	e51b201c 	ldr	r2, [fp, #-28]	; 0xffffffe4
    8860:	e0823003 	add	r3, r2, r3
    8864:	e59f2118 	ldr	r2, [pc, #280]	; 8984 <_Z4itoajPcj+0x170>
    8868:	e7d22001 	ldrb	r2, [r2, r1]
    886c:	e5c32000 	strb	r2, [r3]
/home/schenkj/os2022/sp/sources/stdlib/src/stdstring.cpp:15
		input /= base;
    8870:	e51b1020 	ldr	r1, [fp, #-32]	; 0xffffffe0
    8874:	e51b0018 	ldr	r0, [fp, #-24]	; 0xffffffe8
    8878:	eb000113 	bl	8ccc <__udivsi3>
    887c:	e1a03000 	mov	r3, r0
    8880:	e50b3018 	str	r3, [fp, #-24]	; 0xffffffe8
/home/schenkj/os2022/sp/sources/stdlib/src/stdstring.cpp:16
		i++;
    8884:	e51b3008 	ldr	r3, [fp, #-8]
    8888:	e2833001 	add	r3, r3, #1
    888c:	e50b3008 	str	r3, [fp, #-8]
/home/schenkj/os2022/sp/sources/stdlib/src/stdstring.cpp:12
	while (input > 0)
    8890:	eaffffe7 	b	8834 <_Z4itoajPcj+0x20>
/home/schenkj/os2022/sp/sources/stdlib/src/stdstring.cpp:19
	}

    if (i == 0)
    8894:	e51b3008 	ldr	r3, [fp, #-8]
    8898:	e3530000 	cmp	r3, #0
    889c:	1a000007 	bne	88c0 <_Z4itoajPcj+0xac>
/home/schenkj/os2022/sp/sources/stdlib/src/stdstring.cpp:21
    {
        output[i] = CharConvArr[0];
    88a0:	e51b3008 	ldr	r3, [fp, #-8]
    88a4:	e51b201c 	ldr	r2, [fp, #-28]	; 0xffffffe4
    88a8:	e0823003 	add	r3, r2, r3
    88ac:	e3a02030 	mov	r2, #48	; 0x30
    88b0:	e5c32000 	strb	r2, [r3]
/home/schenkj/os2022/sp/sources/stdlib/src/stdstring.cpp:22
        i++;
    88b4:	e51b3008 	ldr	r3, [fp, #-8]
    88b8:	e2833001 	add	r3, r3, #1
    88bc:	e50b3008 	str	r3, [fp, #-8]
/home/schenkj/os2022/sp/sources/stdlib/src/stdstring.cpp:25
    }

	output[i] = '\0';
    88c0:	e51b3008 	ldr	r3, [fp, #-8]
    88c4:	e51b201c 	ldr	r2, [fp, #-28]	; 0xffffffe4
    88c8:	e0823003 	add	r3, r2, r3
    88cc:	e3a02000 	mov	r2, #0
    88d0:	e5c32000 	strb	r2, [r3]
/home/schenkj/os2022/sp/sources/stdlib/src/stdstring.cpp:26
	i--;
    88d4:	e51b3008 	ldr	r3, [fp, #-8]
    88d8:	e2433001 	sub	r3, r3, #1
    88dc:	e50b3008 	str	r3, [fp, #-8]
/home/schenkj/os2022/sp/sources/stdlib/src/stdstring.cpp:28

	for (int j = 0; j <= i/2; j++)
    88e0:	e3a03000 	mov	r3, #0
    88e4:	e50b300c 	str	r3, [fp, #-12]
/home/schenkj/os2022/sp/sources/stdlib/src/stdstring.cpp:28 (discriminator 3)
    88e8:	e51b3008 	ldr	r3, [fp, #-8]
    88ec:	e1a02fa3 	lsr	r2, r3, #31
    88f0:	e0823003 	add	r3, r2, r3
    88f4:	e1a030c3 	asr	r3, r3, #1
    88f8:	e1a02003 	mov	r2, r3
    88fc:	e51b300c 	ldr	r3, [fp, #-12]
    8900:	e1530002 	cmp	r3, r2
    8904:	ca00001b 	bgt	8978 <_Z4itoajPcj+0x164>
/home/schenkj/os2022/sp/sources/stdlib/src/stdstring.cpp:30 (discriminator 2)
	{
		char c = output[i - j];
    8908:	e51b2008 	ldr	r2, [fp, #-8]
    890c:	e51b300c 	ldr	r3, [fp, #-12]
    8910:	e0423003 	sub	r3, r2, r3
    8914:	e1a02003 	mov	r2, r3
    8918:	e51b301c 	ldr	r3, [fp, #-28]	; 0xffffffe4
    891c:	e0833002 	add	r3, r3, r2
    8920:	e5d33000 	ldrb	r3, [r3]
    8924:	e54b300d 	strb	r3, [fp, #-13]
/home/schenkj/os2022/sp/sources/stdlib/src/stdstring.cpp:31 (discriminator 2)
		output[i - j] = output[j];
    8928:	e51b300c 	ldr	r3, [fp, #-12]
    892c:	e51b201c 	ldr	r2, [fp, #-28]	; 0xffffffe4
    8930:	e0822003 	add	r2, r2, r3
    8934:	e51b1008 	ldr	r1, [fp, #-8]
    8938:	e51b300c 	ldr	r3, [fp, #-12]
    893c:	e0413003 	sub	r3, r1, r3
    8940:	e1a01003 	mov	r1, r3
    8944:	e51b301c 	ldr	r3, [fp, #-28]	; 0xffffffe4
    8948:	e0833001 	add	r3, r3, r1
    894c:	e5d22000 	ldrb	r2, [r2]
    8950:	e5c32000 	strb	r2, [r3]
/home/schenkj/os2022/sp/sources/stdlib/src/stdstring.cpp:32 (discriminator 2)
		output[j] = c;
    8954:	e51b300c 	ldr	r3, [fp, #-12]
    8958:	e51b201c 	ldr	r2, [fp, #-28]	; 0xffffffe4
    895c:	e0823003 	add	r3, r2, r3
    8960:	e55b200d 	ldrb	r2, [fp, #-13]
    8964:	e5c32000 	strb	r2, [r3]
/home/schenkj/os2022/sp/sources/stdlib/src/stdstring.cpp:28 (discriminator 2)
	for (int j = 0; j <= i/2; j++)
    8968:	e51b300c 	ldr	r3, [fp, #-12]
    896c:	e2833001 	add	r3, r3, #1
    8970:	e50b300c 	str	r3, [fp, #-12]
    8974:	eaffffdb 	b	88e8 <_Z4itoajPcj+0xd4>
/home/schenkj/os2022/sp/sources/stdlib/src/stdstring.cpp:34
	}
}
    8978:	e320f000 	nop	{0}
    897c:	e24bd004 	sub	sp, fp, #4
    8980:	e8bd8800 	pop	{fp, pc}
    8984:	00008f70 	andeq	r8, r0, r0, ror pc

00008988 <_Z4atoiPKc>:
_Z4atoiPKc():
/home/schenkj/os2022/sp/sources/stdlib/src/stdstring.cpp:37

int atoi(const char* input)
{
    8988:	e52db004 	push	{fp}		; (str fp, [sp, #-4]!)
    898c:	e28db000 	add	fp, sp, #0
    8990:	e24dd014 	sub	sp, sp, #20
    8994:	e50b0010 	str	r0, [fp, #-16]
/home/schenkj/os2022/sp/sources/stdlib/src/stdstring.cpp:38
	int output = 0;
    8998:	e3a03000 	mov	r3, #0
    899c:	e50b3008 	str	r3, [fp, #-8]
/home/schenkj/os2022/sp/sources/stdlib/src/stdstring.cpp:40

	while (*input != '\0')
    89a0:	e51b3010 	ldr	r3, [fp, #-16]
    89a4:	e5d33000 	ldrb	r3, [r3]
    89a8:	e3530000 	cmp	r3, #0
    89ac:	0a000017 	beq	8a10 <_Z4atoiPKc+0x88>
/home/schenkj/os2022/sp/sources/stdlib/src/stdstring.cpp:42
	{
		output *= 10;
    89b0:	e51b2008 	ldr	r2, [fp, #-8]
    89b4:	e1a03002 	mov	r3, r2
    89b8:	e1a03103 	lsl	r3, r3, #2
    89bc:	e0833002 	add	r3, r3, r2
    89c0:	e1a03083 	lsl	r3, r3, #1
    89c4:	e50b3008 	str	r3, [fp, #-8]
/home/schenkj/os2022/sp/sources/stdlib/src/stdstring.cpp:43
		if (*input > '9' || *input < '0')
    89c8:	e51b3010 	ldr	r3, [fp, #-16]
    89cc:	e5d33000 	ldrb	r3, [r3]
    89d0:	e3530039 	cmp	r3, #57	; 0x39
    89d4:	8a00000d 	bhi	8a10 <_Z4atoiPKc+0x88>
/home/schenkj/os2022/sp/sources/stdlib/src/stdstring.cpp:43 (discriminator 1)
    89d8:	e51b3010 	ldr	r3, [fp, #-16]
    89dc:	e5d33000 	ldrb	r3, [r3]
    89e0:	e353002f 	cmp	r3, #47	; 0x2f
    89e4:	9a000009 	bls	8a10 <_Z4atoiPKc+0x88>
/home/schenkj/os2022/sp/sources/stdlib/src/stdstring.cpp:46
			break;

		output += *input - '0';
    89e8:	e51b3010 	ldr	r3, [fp, #-16]
    89ec:	e5d33000 	ldrb	r3, [r3]
    89f0:	e2433030 	sub	r3, r3, #48	; 0x30
    89f4:	e51b2008 	ldr	r2, [fp, #-8]
    89f8:	e0823003 	add	r3, r2, r3
    89fc:	e50b3008 	str	r3, [fp, #-8]
/home/schenkj/os2022/sp/sources/stdlib/src/stdstring.cpp:48

		input++;
    8a00:	e51b3010 	ldr	r3, [fp, #-16]
    8a04:	e2833001 	add	r3, r3, #1
    8a08:	e50b3010 	str	r3, [fp, #-16]
/home/schenkj/os2022/sp/sources/stdlib/src/stdstring.cpp:40
	while (*input != '\0')
    8a0c:	eaffffe3 	b	89a0 <_Z4atoiPKc+0x18>
/home/schenkj/os2022/sp/sources/stdlib/src/stdstring.cpp:51
	}

	return output;
    8a10:	e51b3008 	ldr	r3, [fp, #-8]
/home/schenkj/os2022/sp/sources/stdlib/src/stdstring.cpp:52
}
    8a14:	e1a00003 	mov	r0, r3
    8a18:	e28bd000 	add	sp, fp, #0
    8a1c:	e49db004 	pop	{fp}		; (ldr fp, [sp], #4)
    8a20:	e12fff1e 	bx	lr

00008a24 <_Z7strncpyPcPKci>:
_Z7strncpyPcPKci():
/home/schenkj/os2022/sp/sources/stdlib/src/stdstring.cpp:55

char* strncpy(char* dest, const char *src, int num)
{
    8a24:	e52db004 	push	{fp}		; (str fp, [sp, #-4]!)
    8a28:	e28db000 	add	fp, sp, #0
    8a2c:	e24dd01c 	sub	sp, sp, #28
    8a30:	e50b0010 	str	r0, [fp, #-16]
    8a34:	e50b1014 	str	r1, [fp, #-20]	; 0xffffffec
    8a38:	e50b2018 	str	r2, [fp, #-24]	; 0xffffffe8
/home/schenkj/os2022/sp/sources/stdlib/src/stdstring.cpp:58
	int i;

	for (i = 0; i < num && src[i] != '\0'; i++)
    8a3c:	e3a03000 	mov	r3, #0
    8a40:	e50b3008 	str	r3, [fp, #-8]
/home/schenkj/os2022/sp/sources/stdlib/src/stdstring.cpp:58 (discriminator 4)
    8a44:	e51b2008 	ldr	r2, [fp, #-8]
    8a48:	e51b3018 	ldr	r3, [fp, #-24]	; 0xffffffe8
    8a4c:	e1520003 	cmp	r2, r3
    8a50:	aa000011 	bge	8a9c <_Z7strncpyPcPKci+0x78>
/home/schenkj/os2022/sp/sources/stdlib/src/stdstring.cpp:58 (discriminator 2)
    8a54:	e51b3008 	ldr	r3, [fp, #-8]
    8a58:	e51b2014 	ldr	r2, [fp, #-20]	; 0xffffffec
    8a5c:	e0823003 	add	r3, r2, r3
    8a60:	e5d33000 	ldrb	r3, [r3]
    8a64:	e3530000 	cmp	r3, #0
    8a68:	0a00000b 	beq	8a9c <_Z7strncpyPcPKci+0x78>
/home/schenkj/os2022/sp/sources/stdlib/src/stdstring.cpp:59 (discriminator 3)
		dest[i] = src[i];
    8a6c:	e51b3008 	ldr	r3, [fp, #-8]
    8a70:	e51b2014 	ldr	r2, [fp, #-20]	; 0xffffffec
    8a74:	e0822003 	add	r2, r2, r3
    8a78:	e51b3008 	ldr	r3, [fp, #-8]
    8a7c:	e51b1010 	ldr	r1, [fp, #-16]
    8a80:	e0813003 	add	r3, r1, r3
    8a84:	e5d22000 	ldrb	r2, [r2]
    8a88:	e5c32000 	strb	r2, [r3]
/home/schenkj/os2022/sp/sources/stdlib/src/stdstring.cpp:58 (discriminator 3)
	for (i = 0; i < num && src[i] != '\0'; i++)
    8a8c:	e51b3008 	ldr	r3, [fp, #-8]
    8a90:	e2833001 	add	r3, r3, #1
    8a94:	e50b3008 	str	r3, [fp, #-8]
    8a98:	eaffffe9 	b	8a44 <_Z7strncpyPcPKci+0x20>
/home/schenkj/os2022/sp/sources/stdlib/src/stdstring.cpp:60 (discriminator 2)
	for (; i < num; i++)
    8a9c:	e51b2008 	ldr	r2, [fp, #-8]
    8aa0:	e51b3018 	ldr	r3, [fp, #-24]	; 0xffffffe8
    8aa4:	e1520003 	cmp	r2, r3
    8aa8:	aa000008 	bge	8ad0 <_Z7strncpyPcPKci+0xac>
/home/schenkj/os2022/sp/sources/stdlib/src/stdstring.cpp:61 (discriminator 1)
		dest[i] = '\0';
    8aac:	e51b3008 	ldr	r3, [fp, #-8]
    8ab0:	e51b2010 	ldr	r2, [fp, #-16]
    8ab4:	e0823003 	add	r3, r2, r3
    8ab8:	e3a02000 	mov	r2, #0
    8abc:	e5c32000 	strb	r2, [r3]
/home/schenkj/os2022/sp/sources/stdlib/src/stdstring.cpp:60 (discriminator 1)
	for (; i < num; i++)
    8ac0:	e51b3008 	ldr	r3, [fp, #-8]
    8ac4:	e2833001 	add	r3, r3, #1
    8ac8:	e50b3008 	str	r3, [fp, #-8]
    8acc:	eafffff2 	b	8a9c <_Z7strncpyPcPKci+0x78>
/home/schenkj/os2022/sp/sources/stdlib/src/stdstring.cpp:63

   return dest;
    8ad0:	e51b3010 	ldr	r3, [fp, #-16]
/home/schenkj/os2022/sp/sources/stdlib/src/stdstring.cpp:64
}
    8ad4:	e1a00003 	mov	r0, r3
    8ad8:	e28bd000 	add	sp, fp, #0
    8adc:	e49db004 	pop	{fp}		; (ldr fp, [sp], #4)
    8ae0:	e12fff1e 	bx	lr

00008ae4 <_Z7strncmpPKcS0_i>:
_Z7strncmpPKcS0_i():
/home/schenkj/os2022/sp/sources/stdlib/src/stdstring.cpp:67

int strncmp(const char *s1, const char *s2, int num)
{
    8ae4:	e52db004 	push	{fp}		; (str fp, [sp, #-4]!)
    8ae8:	e28db000 	add	fp, sp, #0
    8aec:	e24dd01c 	sub	sp, sp, #28
    8af0:	e50b0010 	str	r0, [fp, #-16]
    8af4:	e50b1014 	str	r1, [fp, #-20]	; 0xffffffec
    8af8:	e50b2018 	str	r2, [fp, #-24]	; 0xffffffe8
/home/schenkj/os2022/sp/sources/stdlib/src/stdstring.cpp:69
	unsigned char u1, u2;
  	while (num-- > 0)
    8afc:	e51b3018 	ldr	r3, [fp, #-24]	; 0xffffffe8
    8b00:	e2432001 	sub	r2, r3, #1
    8b04:	e50b2018 	str	r2, [fp, #-24]	; 0xffffffe8
    8b08:	e3530000 	cmp	r3, #0
    8b0c:	c3a03001 	movgt	r3, #1
    8b10:	d3a03000 	movle	r3, #0
    8b14:	e6ef3073 	uxtb	r3, r3
    8b18:	e3530000 	cmp	r3, #0
    8b1c:	0a000016 	beq	8b7c <_Z7strncmpPKcS0_i+0x98>
/home/schenkj/os2022/sp/sources/stdlib/src/stdstring.cpp:71
    {
      	u1 = (unsigned char) *s1++;
    8b20:	e51b3010 	ldr	r3, [fp, #-16]
    8b24:	e2832001 	add	r2, r3, #1
    8b28:	e50b2010 	str	r2, [fp, #-16]
    8b2c:	e5d33000 	ldrb	r3, [r3]
    8b30:	e54b3005 	strb	r3, [fp, #-5]
/home/schenkj/os2022/sp/sources/stdlib/src/stdstring.cpp:72
     	u2 = (unsigned char) *s2++;
    8b34:	e51b3014 	ldr	r3, [fp, #-20]	; 0xffffffec
    8b38:	e2832001 	add	r2, r3, #1
    8b3c:	e50b2014 	str	r2, [fp, #-20]	; 0xffffffec
    8b40:	e5d33000 	ldrb	r3, [r3]
    8b44:	e54b3006 	strb	r3, [fp, #-6]
/home/schenkj/os2022/sp/sources/stdlib/src/stdstring.cpp:73
      	if (u1 != u2)
    8b48:	e55b2005 	ldrb	r2, [fp, #-5]
    8b4c:	e55b3006 	ldrb	r3, [fp, #-6]
    8b50:	e1520003 	cmp	r2, r3
    8b54:	0a000003 	beq	8b68 <_Z7strncmpPKcS0_i+0x84>
/home/schenkj/os2022/sp/sources/stdlib/src/stdstring.cpp:74
        	return u1 - u2;
    8b58:	e55b2005 	ldrb	r2, [fp, #-5]
    8b5c:	e55b3006 	ldrb	r3, [fp, #-6]
    8b60:	e0423003 	sub	r3, r2, r3
    8b64:	ea000005 	b	8b80 <_Z7strncmpPKcS0_i+0x9c>
/home/schenkj/os2022/sp/sources/stdlib/src/stdstring.cpp:75
      	if (u1 == '\0')
    8b68:	e55b3005 	ldrb	r3, [fp, #-5]
    8b6c:	e3530000 	cmp	r3, #0
    8b70:	1affffe1 	bne	8afc <_Z7strncmpPKcS0_i+0x18>
/home/schenkj/os2022/sp/sources/stdlib/src/stdstring.cpp:76
        	return 0;
    8b74:	e3a03000 	mov	r3, #0
    8b78:	ea000000 	b	8b80 <_Z7strncmpPKcS0_i+0x9c>
/home/schenkj/os2022/sp/sources/stdlib/src/stdstring.cpp:79
    }

  	return 0;
    8b7c:	e3a03000 	mov	r3, #0
/home/schenkj/os2022/sp/sources/stdlib/src/stdstring.cpp:80
}
    8b80:	e1a00003 	mov	r0, r3
    8b84:	e28bd000 	add	sp, fp, #0
    8b88:	e49db004 	pop	{fp}		; (ldr fp, [sp], #4)
    8b8c:	e12fff1e 	bx	lr

00008b90 <_Z6strlenPKc>:
_Z6strlenPKc():
/home/schenkj/os2022/sp/sources/stdlib/src/stdstring.cpp:83

int strlen(const char* s)
{
    8b90:	e52db004 	push	{fp}		; (str fp, [sp, #-4]!)
    8b94:	e28db000 	add	fp, sp, #0
    8b98:	e24dd014 	sub	sp, sp, #20
    8b9c:	e50b0010 	str	r0, [fp, #-16]
/home/schenkj/os2022/sp/sources/stdlib/src/stdstring.cpp:84
	int i = 0;
    8ba0:	e3a03000 	mov	r3, #0
    8ba4:	e50b3008 	str	r3, [fp, #-8]
/home/schenkj/os2022/sp/sources/stdlib/src/stdstring.cpp:86

	while (s[i] != '\0')
    8ba8:	e51b3008 	ldr	r3, [fp, #-8]
    8bac:	e51b2010 	ldr	r2, [fp, #-16]
    8bb0:	e0823003 	add	r3, r2, r3
    8bb4:	e5d33000 	ldrb	r3, [r3]
    8bb8:	e3530000 	cmp	r3, #0
    8bbc:	0a000003 	beq	8bd0 <_Z6strlenPKc+0x40>
/home/schenkj/os2022/sp/sources/stdlib/src/stdstring.cpp:87
		i++;
    8bc0:	e51b3008 	ldr	r3, [fp, #-8]
    8bc4:	e2833001 	add	r3, r3, #1
    8bc8:	e50b3008 	str	r3, [fp, #-8]
/home/schenkj/os2022/sp/sources/stdlib/src/stdstring.cpp:86
	while (s[i] != '\0')
    8bcc:	eafffff5 	b	8ba8 <_Z6strlenPKc+0x18>
/home/schenkj/os2022/sp/sources/stdlib/src/stdstring.cpp:89

	return i;
    8bd0:	e51b3008 	ldr	r3, [fp, #-8]
/home/schenkj/os2022/sp/sources/stdlib/src/stdstring.cpp:90
}
    8bd4:	e1a00003 	mov	r0, r3
    8bd8:	e28bd000 	add	sp, fp, #0
    8bdc:	e49db004 	pop	{fp}		; (ldr fp, [sp], #4)
    8be0:	e12fff1e 	bx	lr

00008be4 <_Z5bzeroPvi>:
_Z5bzeroPvi():
/home/schenkj/os2022/sp/sources/stdlib/src/stdstring.cpp:93

void bzero(void* memory, int length)
{
    8be4:	e52db004 	push	{fp}		; (str fp, [sp, #-4]!)
    8be8:	e28db000 	add	fp, sp, #0
    8bec:	e24dd014 	sub	sp, sp, #20
    8bf0:	e50b0010 	str	r0, [fp, #-16]
    8bf4:	e50b1014 	str	r1, [fp, #-20]	; 0xffffffec
/home/schenkj/os2022/sp/sources/stdlib/src/stdstring.cpp:94
	char* mem = reinterpret_cast<char*>(memory);
    8bf8:	e51b3010 	ldr	r3, [fp, #-16]
    8bfc:	e50b300c 	str	r3, [fp, #-12]
/home/schenkj/os2022/sp/sources/stdlib/src/stdstring.cpp:96

	for (int i = 0; i < length; i++)
    8c00:	e3a03000 	mov	r3, #0
    8c04:	e50b3008 	str	r3, [fp, #-8]
/home/schenkj/os2022/sp/sources/stdlib/src/stdstring.cpp:96 (discriminator 3)
    8c08:	e51b2008 	ldr	r2, [fp, #-8]
    8c0c:	e51b3014 	ldr	r3, [fp, #-20]	; 0xffffffec
    8c10:	e1520003 	cmp	r2, r3
    8c14:	aa000008 	bge	8c3c <_Z5bzeroPvi+0x58>
/home/schenkj/os2022/sp/sources/stdlib/src/stdstring.cpp:97 (discriminator 2)
		mem[i] = 0;
    8c18:	e51b3008 	ldr	r3, [fp, #-8]
    8c1c:	e51b200c 	ldr	r2, [fp, #-12]
    8c20:	e0823003 	add	r3, r2, r3
    8c24:	e3a02000 	mov	r2, #0
    8c28:	e5c32000 	strb	r2, [r3]
/home/schenkj/os2022/sp/sources/stdlib/src/stdstring.cpp:96 (discriminator 2)
	for (int i = 0; i < length; i++)
    8c2c:	e51b3008 	ldr	r3, [fp, #-8]
    8c30:	e2833001 	add	r3, r3, #1
    8c34:	e50b3008 	str	r3, [fp, #-8]
    8c38:	eafffff2 	b	8c08 <_Z5bzeroPvi+0x24>
/home/schenkj/os2022/sp/sources/stdlib/src/stdstring.cpp:98
}
    8c3c:	e320f000 	nop	{0}
    8c40:	e28bd000 	add	sp, fp, #0
    8c44:	e49db004 	pop	{fp}		; (ldr fp, [sp], #4)
    8c48:	e12fff1e 	bx	lr

00008c4c <_Z6memcpyPKvPvi>:
_Z6memcpyPKvPvi():
/home/schenkj/os2022/sp/sources/stdlib/src/stdstring.cpp:101

void memcpy(const void* src, void* dst, int num)
{
    8c4c:	e52db004 	push	{fp}		; (str fp, [sp, #-4]!)
    8c50:	e28db000 	add	fp, sp, #0
    8c54:	e24dd024 	sub	sp, sp, #36	; 0x24
    8c58:	e50b0018 	str	r0, [fp, #-24]	; 0xffffffe8
    8c5c:	e50b101c 	str	r1, [fp, #-28]	; 0xffffffe4
    8c60:	e50b2020 	str	r2, [fp, #-32]	; 0xffffffe0
/home/schenkj/os2022/sp/sources/stdlib/src/stdstring.cpp:102
	const char* memsrc = reinterpret_cast<const char*>(src);
    8c64:	e51b3018 	ldr	r3, [fp, #-24]	; 0xffffffe8
    8c68:	e50b300c 	str	r3, [fp, #-12]
/home/schenkj/os2022/sp/sources/stdlib/src/stdstring.cpp:103
	char* memdst = reinterpret_cast<char*>(dst);
    8c6c:	e51b301c 	ldr	r3, [fp, #-28]	; 0xffffffe4
    8c70:	e50b3010 	str	r3, [fp, #-16]
/home/schenkj/os2022/sp/sources/stdlib/src/stdstring.cpp:105

	for (int i = 0; i < num; i++)
    8c74:	e3a03000 	mov	r3, #0
    8c78:	e50b3008 	str	r3, [fp, #-8]
/home/schenkj/os2022/sp/sources/stdlib/src/stdstring.cpp:105 (discriminator 3)
    8c7c:	e51b2008 	ldr	r2, [fp, #-8]
    8c80:	e51b3020 	ldr	r3, [fp, #-32]	; 0xffffffe0
    8c84:	e1520003 	cmp	r2, r3
    8c88:	aa00000b 	bge	8cbc <_Z6memcpyPKvPvi+0x70>
/home/schenkj/os2022/sp/sources/stdlib/src/stdstring.cpp:106 (discriminator 2)
		memdst[i] = memsrc[i];
    8c8c:	e51b3008 	ldr	r3, [fp, #-8]
    8c90:	e51b200c 	ldr	r2, [fp, #-12]
    8c94:	e0822003 	add	r2, r2, r3
    8c98:	e51b3008 	ldr	r3, [fp, #-8]
    8c9c:	e51b1010 	ldr	r1, [fp, #-16]
    8ca0:	e0813003 	add	r3, r1, r3
    8ca4:	e5d22000 	ldrb	r2, [r2]
    8ca8:	e5c32000 	strb	r2, [r3]
/home/schenkj/os2022/sp/sources/stdlib/src/stdstring.cpp:105 (discriminator 2)
	for (int i = 0; i < num; i++)
    8cac:	e51b3008 	ldr	r3, [fp, #-8]
    8cb0:	e2833001 	add	r3, r3, #1
    8cb4:	e50b3008 	str	r3, [fp, #-8]
    8cb8:	eaffffef 	b	8c7c <_Z6memcpyPKvPvi+0x30>
/home/schenkj/os2022/sp/sources/stdlib/src/stdstring.cpp:107
}
    8cbc:	e320f000 	nop	{0}
    8cc0:	e28bd000 	add	sp, fp, #0
    8cc4:	e49db004 	pop	{fp}		; (ldr fp, [sp], #4)
    8cc8:	e12fff1e 	bx	lr

00008ccc <__udivsi3>:
__udivsi3():
/build/gcc-arm-none-eabi-Gl9kT9/gcc-arm-none-eabi-9-2019-q4/build/arm-none-eabi/arm/v5te/hard/libgcc/../../../../../../libgcc/config/arm/lib1funcs.S:1099
    8ccc:	e2512001 	subs	r2, r1, #1
/build/gcc-arm-none-eabi-Gl9kT9/gcc-arm-none-eabi-9-2019-q4/build/arm-none-eabi/arm/v5te/hard/libgcc/../../../../../../libgcc/config/arm/lib1funcs.S:1101
    8cd0:	012fff1e 	bxeq	lr
/build/gcc-arm-none-eabi-Gl9kT9/gcc-arm-none-eabi-9-2019-q4/build/arm-none-eabi/arm/v5te/hard/libgcc/../../../../../../libgcc/config/arm/lib1funcs.S:1102
    8cd4:	3a000074 	bcc	8eac <__udivsi3+0x1e0>
/build/gcc-arm-none-eabi-Gl9kT9/gcc-arm-none-eabi-9-2019-q4/build/arm-none-eabi/arm/v5te/hard/libgcc/../../../../../../libgcc/config/arm/lib1funcs.S:1103
    8cd8:	e1500001 	cmp	r0, r1
/build/gcc-arm-none-eabi-Gl9kT9/gcc-arm-none-eabi-9-2019-q4/build/arm-none-eabi/arm/v5te/hard/libgcc/../../../../../../libgcc/config/arm/lib1funcs.S:1104
    8cdc:	9a00006b 	bls	8e90 <__udivsi3+0x1c4>
/build/gcc-arm-none-eabi-Gl9kT9/gcc-arm-none-eabi-9-2019-q4/build/arm-none-eabi/arm/v5te/hard/libgcc/../../../../../../libgcc/config/arm/lib1funcs.S:1105
    8ce0:	e1110002 	tst	r1, r2
/build/gcc-arm-none-eabi-Gl9kT9/gcc-arm-none-eabi-9-2019-q4/build/arm-none-eabi/arm/v5te/hard/libgcc/../../../../../../libgcc/config/arm/lib1funcs.S:1106
    8ce4:	0a00006c 	beq	8e9c <__udivsi3+0x1d0>
/build/gcc-arm-none-eabi-Gl9kT9/gcc-arm-none-eabi-9-2019-q4/build/arm-none-eabi/arm/v5te/hard/libgcc/../../../../../../libgcc/config/arm/lib1funcs.S:1108
    8ce8:	e16f3f10 	clz	r3, r0
    8cec:	e16f2f11 	clz	r2, r1
    8cf0:	e0423003 	sub	r3, r2, r3
    8cf4:	e273301f 	rsbs	r3, r3, #31
    8cf8:	10833083 	addne	r3, r3, r3, lsl #1
    8cfc:	e3a02000 	mov	r2, #0
    8d00:	108ff103 	addne	pc, pc, r3, lsl #2
    8d04:	e1a00000 	nop			; (mov r0, r0)
    8d08:	e1500f81 	cmp	r0, r1, lsl #31
    8d0c:	e0a22002 	adc	r2, r2, r2
    8d10:	20400f81 	subcs	r0, r0, r1, lsl #31
    8d14:	e1500f01 	cmp	r0, r1, lsl #30
    8d18:	e0a22002 	adc	r2, r2, r2
    8d1c:	20400f01 	subcs	r0, r0, r1, lsl #30
    8d20:	e1500e81 	cmp	r0, r1, lsl #29
    8d24:	e0a22002 	adc	r2, r2, r2
    8d28:	20400e81 	subcs	r0, r0, r1, lsl #29
    8d2c:	e1500e01 	cmp	r0, r1, lsl #28
    8d30:	e0a22002 	adc	r2, r2, r2
    8d34:	20400e01 	subcs	r0, r0, r1, lsl #28
    8d38:	e1500d81 	cmp	r0, r1, lsl #27
    8d3c:	e0a22002 	adc	r2, r2, r2
    8d40:	20400d81 	subcs	r0, r0, r1, lsl #27
    8d44:	e1500d01 	cmp	r0, r1, lsl #26
    8d48:	e0a22002 	adc	r2, r2, r2
    8d4c:	20400d01 	subcs	r0, r0, r1, lsl #26
    8d50:	e1500c81 	cmp	r0, r1, lsl #25
    8d54:	e0a22002 	adc	r2, r2, r2
    8d58:	20400c81 	subcs	r0, r0, r1, lsl #25
    8d5c:	e1500c01 	cmp	r0, r1, lsl #24
    8d60:	e0a22002 	adc	r2, r2, r2
    8d64:	20400c01 	subcs	r0, r0, r1, lsl #24
    8d68:	e1500b81 	cmp	r0, r1, lsl #23
    8d6c:	e0a22002 	adc	r2, r2, r2
    8d70:	20400b81 	subcs	r0, r0, r1, lsl #23
    8d74:	e1500b01 	cmp	r0, r1, lsl #22
    8d78:	e0a22002 	adc	r2, r2, r2
    8d7c:	20400b01 	subcs	r0, r0, r1, lsl #22
    8d80:	e1500a81 	cmp	r0, r1, lsl #21
    8d84:	e0a22002 	adc	r2, r2, r2
    8d88:	20400a81 	subcs	r0, r0, r1, lsl #21
    8d8c:	e1500a01 	cmp	r0, r1, lsl #20
    8d90:	e0a22002 	adc	r2, r2, r2
    8d94:	20400a01 	subcs	r0, r0, r1, lsl #20
    8d98:	e1500981 	cmp	r0, r1, lsl #19
    8d9c:	e0a22002 	adc	r2, r2, r2
    8da0:	20400981 	subcs	r0, r0, r1, lsl #19
    8da4:	e1500901 	cmp	r0, r1, lsl #18
    8da8:	e0a22002 	adc	r2, r2, r2
    8dac:	20400901 	subcs	r0, r0, r1, lsl #18
    8db0:	e1500881 	cmp	r0, r1, lsl #17
    8db4:	e0a22002 	adc	r2, r2, r2
    8db8:	20400881 	subcs	r0, r0, r1, lsl #17
    8dbc:	e1500801 	cmp	r0, r1, lsl #16
    8dc0:	e0a22002 	adc	r2, r2, r2
    8dc4:	20400801 	subcs	r0, r0, r1, lsl #16
    8dc8:	e1500781 	cmp	r0, r1, lsl #15
    8dcc:	e0a22002 	adc	r2, r2, r2
    8dd0:	20400781 	subcs	r0, r0, r1, lsl #15
    8dd4:	e1500701 	cmp	r0, r1, lsl #14
    8dd8:	e0a22002 	adc	r2, r2, r2
    8ddc:	20400701 	subcs	r0, r0, r1, lsl #14
    8de0:	e1500681 	cmp	r0, r1, lsl #13
    8de4:	e0a22002 	adc	r2, r2, r2
    8de8:	20400681 	subcs	r0, r0, r1, lsl #13
    8dec:	e1500601 	cmp	r0, r1, lsl #12
    8df0:	e0a22002 	adc	r2, r2, r2
    8df4:	20400601 	subcs	r0, r0, r1, lsl #12
    8df8:	e1500581 	cmp	r0, r1, lsl #11
    8dfc:	e0a22002 	adc	r2, r2, r2
    8e00:	20400581 	subcs	r0, r0, r1, lsl #11
    8e04:	e1500501 	cmp	r0, r1, lsl #10
    8e08:	e0a22002 	adc	r2, r2, r2
    8e0c:	20400501 	subcs	r0, r0, r1, lsl #10
    8e10:	e1500481 	cmp	r0, r1, lsl #9
    8e14:	e0a22002 	adc	r2, r2, r2
    8e18:	20400481 	subcs	r0, r0, r1, lsl #9
    8e1c:	e1500401 	cmp	r0, r1, lsl #8
    8e20:	e0a22002 	adc	r2, r2, r2
    8e24:	20400401 	subcs	r0, r0, r1, lsl #8
    8e28:	e1500381 	cmp	r0, r1, lsl #7
    8e2c:	e0a22002 	adc	r2, r2, r2
    8e30:	20400381 	subcs	r0, r0, r1, lsl #7
    8e34:	e1500301 	cmp	r0, r1, lsl #6
    8e38:	e0a22002 	adc	r2, r2, r2
    8e3c:	20400301 	subcs	r0, r0, r1, lsl #6
    8e40:	e1500281 	cmp	r0, r1, lsl #5
    8e44:	e0a22002 	adc	r2, r2, r2
    8e48:	20400281 	subcs	r0, r0, r1, lsl #5
    8e4c:	e1500201 	cmp	r0, r1, lsl #4
    8e50:	e0a22002 	adc	r2, r2, r2
    8e54:	20400201 	subcs	r0, r0, r1, lsl #4
    8e58:	e1500181 	cmp	r0, r1, lsl #3
    8e5c:	e0a22002 	adc	r2, r2, r2
    8e60:	20400181 	subcs	r0, r0, r1, lsl #3
    8e64:	e1500101 	cmp	r0, r1, lsl #2
    8e68:	e0a22002 	adc	r2, r2, r2
    8e6c:	20400101 	subcs	r0, r0, r1, lsl #2
    8e70:	e1500081 	cmp	r0, r1, lsl #1
    8e74:	e0a22002 	adc	r2, r2, r2
    8e78:	20400081 	subcs	r0, r0, r1, lsl #1
    8e7c:	e1500001 	cmp	r0, r1
    8e80:	e0a22002 	adc	r2, r2, r2
    8e84:	20400001 	subcs	r0, r0, r1
/build/gcc-arm-none-eabi-Gl9kT9/gcc-arm-none-eabi-9-2019-q4/build/arm-none-eabi/arm/v5te/hard/libgcc/../../../../../../libgcc/config/arm/lib1funcs.S:1110
    8e88:	e1a00002 	mov	r0, r2
/build/gcc-arm-none-eabi-Gl9kT9/gcc-arm-none-eabi-9-2019-q4/build/arm-none-eabi/arm/v5te/hard/libgcc/../../../../../../libgcc/config/arm/lib1funcs.S:1111
    8e8c:	e12fff1e 	bx	lr
/build/gcc-arm-none-eabi-Gl9kT9/gcc-arm-none-eabi-9-2019-q4/build/arm-none-eabi/arm/v5te/hard/libgcc/../../../../../../libgcc/config/arm/lib1funcs.S:1114
    8e90:	03a00001 	moveq	r0, #1
/build/gcc-arm-none-eabi-Gl9kT9/gcc-arm-none-eabi-9-2019-q4/build/arm-none-eabi/arm/v5te/hard/libgcc/../../../../../../libgcc/config/arm/lib1funcs.S:1115
    8e94:	13a00000 	movne	r0, #0
/build/gcc-arm-none-eabi-Gl9kT9/gcc-arm-none-eabi-9-2019-q4/build/arm-none-eabi/arm/v5te/hard/libgcc/../../../../../../libgcc/config/arm/lib1funcs.S:1116
    8e98:	e12fff1e 	bx	lr
/build/gcc-arm-none-eabi-Gl9kT9/gcc-arm-none-eabi-9-2019-q4/build/arm-none-eabi/arm/v5te/hard/libgcc/../../../../../../libgcc/config/arm/lib1funcs.S:1118
    8e9c:	e16f2f11 	clz	r2, r1
    8ea0:	e262201f 	rsb	r2, r2, #31
/build/gcc-arm-none-eabi-Gl9kT9/gcc-arm-none-eabi-9-2019-q4/build/arm-none-eabi/arm/v5te/hard/libgcc/../../../../../../libgcc/config/arm/lib1funcs.S:1120
    8ea4:	e1a00230 	lsr	r0, r0, r2
/build/gcc-arm-none-eabi-Gl9kT9/gcc-arm-none-eabi-9-2019-q4/build/arm-none-eabi/arm/v5te/hard/libgcc/../../../../../../libgcc/config/arm/lib1funcs.S:1121
    8ea8:	e12fff1e 	bx	lr
/build/gcc-arm-none-eabi-Gl9kT9/gcc-arm-none-eabi-9-2019-q4/build/arm-none-eabi/arm/v5te/hard/libgcc/../../../../../../libgcc/config/arm/lib1funcs.S:1125
    8eac:	e3500000 	cmp	r0, #0
    8eb0:	13e00000 	mvnne	r0, #0
    8eb4:	ea000007 	b	8ed8 <__aeabi_idiv0>

00008eb8 <__aeabi_uidivmod>:
__aeabi_uidivmod():
/build/gcc-arm-none-eabi-Gl9kT9/gcc-arm-none-eabi-9-2019-q4/build/arm-none-eabi/arm/v5te/hard/libgcc/../../../../../../libgcc/config/arm/lib1funcs.S:1156
    8eb8:	e3510000 	cmp	r1, #0
/build/gcc-arm-none-eabi-Gl9kT9/gcc-arm-none-eabi-9-2019-q4/build/arm-none-eabi/arm/v5te/hard/libgcc/../../../../../../libgcc/config/arm/lib1funcs.S:1157
    8ebc:	0afffffa 	beq	8eac <__udivsi3+0x1e0>
/build/gcc-arm-none-eabi-Gl9kT9/gcc-arm-none-eabi-9-2019-q4/build/arm-none-eabi/arm/v5te/hard/libgcc/../../../../../../libgcc/config/arm/lib1funcs.S:1158
    8ec0:	e92d4003 	push	{r0, r1, lr}
/build/gcc-arm-none-eabi-Gl9kT9/gcc-arm-none-eabi-9-2019-q4/build/arm-none-eabi/arm/v5te/hard/libgcc/../../../../../../libgcc/config/arm/lib1funcs.S:1159
    8ec4:	ebffff80 	bl	8ccc <__udivsi3>
/build/gcc-arm-none-eabi-Gl9kT9/gcc-arm-none-eabi-9-2019-q4/build/arm-none-eabi/arm/v5te/hard/libgcc/../../../../../../libgcc/config/arm/lib1funcs.S:1160
    8ec8:	e8bd4006 	pop	{r1, r2, lr}
/build/gcc-arm-none-eabi-Gl9kT9/gcc-arm-none-eabi-9-2019-q4/build/arm-none-eabi/arm/v5te/hard/libgcc/../../../../../../libgcc/config/arm/lib1funcs.S:1161
    8ecc:	e0030092 	mul	r3, r2, r0
/build/gcc-arm-none-eabi-Gl9kT9/gcc-arm-none-eabi-9-2019-q4/build/arm-none-eabi/arm/v5te/hard/libgcc/../../../../../../libgcc/config/arm/lib1funcs.S:1162
    8ed0:	e0411003 	sub	r1, r1, r3
/build/gcc-arm-none-eabi-Gl9kT9/gcc-arm-none-eabi-9-2019-q4/build/arm-none-eabi/arm/v5te/hard/libgcc/../../../../../../libgcc/config/arm/lib1funcs.S:1163
    8ed4:	e12fff1e 	bx	lr

00008ed8 <__aeabi_idiv0>:
__aeabi_ldiv0():
/build/gcc-arm-none-eabi-Gl9kT9/gcc-arm-none-eabi-9-2019-q4/build/arm-none-eabi/arm/v5te/hard/libgcc/../../../../../../libgcc/config/arm/lib1funcs.S:1461
    8ed8:	e12fff1e 	bx	lr
