
./oled_task:     file format elf32-littlearm


Disassembly of section .text:

00008000 <_start>:
_start():
/home/schenkj/os2022/sp/sources/userspace/crt0.s:10
;@ startovaci symbol - vstupni bod z jadra OS do uzivatelskeho programu
;@ v podstate jen ihned zavola nejakou C funkci, nepotrebujeme nic tak kritickeho, abychom to vsechno museli psal v ASM
;@ jen _start vlastne ani neni funkce, takze by tento vstupni bod mel byt psany takto; rovnez je treba se ujistit, ze
;@ je tento symbol relokovany spravne na 0x8000 (tam OS ocekava, ze se nachazi vstupni bod)
_start:
    bl __crt0_run
    8000:	eb00001a 	bl	8070 <__crt0_run>

00008004 <_hang>:
_hang():
/home/schenkj/os2022/sp/sources/userspace/crt0.s:13
    ;@ z funkce __crt0_run by se nemel proces uz vratit, ale kdyby neco, tak se zacyklime
_hang:
    b _hang
    8004:	eafffffe 	b	8004 <_hang>

00008008 <__crt0_init_bss>:
__crt0_init_bss():
/home/schenkj/os2022/sp/sources/userspace/crt0.c:10

extern unsigned int __bss_start;
extern unsigned int __bss_end;

void __crt0_init_bss()
{
    8008:	e52db004 	push	{fp}		; (str fp, [sp, #-4]!)
    800c:	e28db000 	add	fp, sp, #0
    8010:	e24dd00c 	sub	sp, sp, #12
/home/schenkj/os2022/sp/sources/userspace/crt0.c:11
    unsigned int* begin = (unsigned int*)__bss_start;
    8014:	e59f304c 	ldr	r3, [pc, #76]	; 8068 <__crt0_init_bss+0x60>
    8018:	e5933000 	ldr	r3, [r3]
    801c:	e50b3008 	str	r3, [fp, #-8]
/home/schenkj/os2022/sp/sources/userspace/crt0.c:12
    for (; begin < (unsigned int*)__bss_end; begin++)
    8020:	ea000005 	b	803c <__crt0_init_bss+0x34>
/home/schenkj/os2022/sp/sources/userspace/crt0.c:13 (discriminator 2)
        *begin = 0;
    8024:	e51b3008 	ldr	r3, [fp, #-8]
    8028:	e3a02000 	mov	r2, #0
    802c:	e5832000 	str	r2, [r3]
/home/schenkj/os2022/sp/sources/userspace/crt0.c:12 (discriminator 2)
    for (; begin < (unsigned int*)__bss_end; begin++)
    8030:	e51b3008 	ldr	r3, [fp, #-8]
    8034:	e2833004 	add	r3, r3, #4
    8038:	e50b3008 	str	r3, [fp, #-8]
/home/schenkj/os2022/sp/sources/userspace/crt0.c:12 (discriminator 1)
    803c:	e59f3028 	ldr	r3, [pc, #40]	; 806c <__crt0_init_bss+0x64>
    8040:	e5933000 	ldr	r3, [r3]
    8044:	e1a02003 	mov	r2, r3
    8048:	e51b3008 	ldr	r3, [fp, #-8]
    804c:	e1530002 	cmp	r3, r2
    8050:	3afffff3 	bcc	8024 <__crt0_init_bss+0x1c>
/home/schenkj/os2022/sp/sources/userspace/crt0.c:14
}
    8054:	e320f000 	nop	{0}
    8058:	e320f000 	nop	{0}
    805c:	e28bd000 	add	sp, fp, #0
    8060:	e49db004 	pop	{fp}		; (ldr fp, [sp], #4)
    8064:	e12fff1e 	bx	lr
    8068:	00009734 	andeq	r9, r0, r4, lsr r7
    806c:	00009744 	andeq	r9, r0, r4, asr #14

00008070 <__crt0_run>:
__crt0_run():
/home/schenkj/os2022/sp/sources/userspace/crt0.c:17

void __crt0_run()
{
    8070:	e92d4800 	push	{fp, lr}
    8074:	e28db004 	add	fp, sp, #4
    8078:	e24dd008 	sub	sp, sp, #8
/home/schenkj/os2022/sp/sources/userspace/crt0.c:19
    // inicializace .bss sekce (vynulovani)
    __crt0_init_bss();
    807c:	ebffffe1 	bl	8008 <__crt0_init_bss>
/home/schenkj/os2022/sp/sources/userspace/crt0.c:22

    // volani konstruktoru globalnich trid (C++)
    _cpp_startup();
    8080:	eb000040 	bl	8188 <_cpp_startup>
/home/schenkj/os2022/sp/sources/userspace/crt0.c:27

    // volani funkce main
    // nebudeme se zde zabyvat predavanim parametru do funkce main
    // jinak by se mohly predavat napr. namapovane do virtualniho adr. prostoru a odkazem pres zasobnik (kam nam muze OS pushnout co chce)
    int result = main(0, 0);
    8084:	e3a01000 	mov	r1, #0
    8088:	e3a00000 	mov	r0, #0
    808c:	eb000069 	bl	8238 <main>
    8090:	e50b0008 	str	r0, [fp, #-8]
/home/schenkj/os2022/sp/sources/userspace/crt0.c:30

    // volani destruktoru globalnich trid (C++)
    _cpp_shutdown();
    8094:	eb000051 	bl	81e0 <_cpp_shutdown>
/home/schenkj/os2022/sp/sources/userspace/crt0.c:33

    // volani terminate() syscallu s navratovym kodem funkce main
    asm volatile("mov r0, %0" : : "r" (result));
    8098:	e51b3008 	ldr	r3, [fp, #-8]
    809c:	e1a00003 	mov	r0, r3
/home/schenkj/os2022/sp/sources/userspace/crt0.c:34
    asm volatile("svc #1");
    80a0:	ef000001 	svc	0x00000001
/home/schenkj/os2022/sp/sources/userspace/crt0.c:35
}
    80a4:	e320f000 	nop	{0}
    80a8:	e24bd004 	sub	sp, fp, #4
    80ac:	e8bd8800 	pop	{fp, pc}

000080b0 <__cxa_guard_acquire>:
__cxa_guard_acquire():
/home/schenkj/os2022/sp/sources/userspace/cxxabi.cpp:11
	extern "C" int __cxa_guard_acquire (__guard *);
	extern "C" void __cxa_guard_release (__guard *);
	extern "C" void __cxa_guard_abort (__guard *);

	extern "C" int __cxa_guard_acquire (__guard *g)
	{
    80b0:	e52db004 	push	{fp}		; (str fp, [sp, #-4]!)
    80b4:	e28db000 	add	fp, sp, #0
    80b8:	e24dd00c 	sub	sp, sp, #12
    80bc:	e50b0008 	str	r0, [fp, #-8]
/home/schenkj/os2022/sp/sources/userspace/cxxabi.cpp:12
		return !*(char *)(g);
    80c0:	e51b3008 	ldr	r3, [fp, #-8]
    80c4:	e5d33000 	ldrb	r3, [r3]
    80c8:	e3530000 	cmp	r3, #0
    80cc:	03a03001 	moveq	r3, #1
    80d0:	13a03000 	movne	r3, #0
    80d4:	e6ef3073 	uxtb	r3, r3
/home/schenkj/os2022/sp/sources/userspace/cxxabi.cpp:13
	}
    80d8:	e1a00003 	mov	r0, r3
    80dc:	e28bd000 	add	sp, fp, #0
    80e0:	e49db004 	pop	{fp}		; (ldr fp, [sp], #4)
    80e4:	e12fff1e 	bx	lr

000080e8 <__cxa_guard_release>:
__cxa_guard_release():
/home/schenkj/os2022/sp/sources/userspace/cxxabi.cpp:16

	extern "C" void __cxa_guard_release (__guard *g)
	{
    80e8:	e52db004 	push	{fp}		; (str fp, [sp, #-4]!)
    80ec:	e28db000 	add	fp, sp, #0
    80f0:	e24dd00c 	sub	sp, sp, #12
    80f4:	e50b0008 	str	r0, [fp, #-8]
/home/schenkj/os2022/sp/sources/userspace/cxxabi.cpp:17
		*(char *)g = 1;
    80f8:	e51b3008 	ldr	r3, [fp, #-8]
    80fc:	e3a02001 	mov	r2, #1
    8100:	e5c32000 	strb	r2, [r3]
/home/schenkj/os2022/sp/sources/userspace/cxxabi.cpp:18
	}
    8104:	e320f000 	nop	{0}
    8108:	e28bd000 	add	sp, fp, #0
    810c:	e49db004 	pop	{fp}		; (ldr fp, [sp], #4)
    8110:	e12fff1e 	bx	lr

00008114 <__cxa_guard_abort>:
__cxa_guard_abort():
/home/schenkj/os2022/sp/sources/userspace/cxxabi.cpp:21

	extern "C" void __cxa_guard_abort (__guard *)
	{
    8114:	e52db004 	push	{fp}		; (str fp, [sp, #-4]!)
    8118:	e28db000 	add	fp, sp, #0
    811c:	e24dd00c 	sub	sp, sp, #12
    8120:	e50b0008 	str	r0, [fp, #-8]
/home/schenkj/os2022/sp/sources/userspace/cxxabi.cpp:23

	}
    8124:	e320f000 	nop	{0}
    8128:	e28bd000 	add	sp, fp, #0
    812c:	e49db004 	pop	{fp}		; (ldr fp, [sp], #4)
    8130:	e12fff1e 	bx	lr

00008134 <__dso_handle>:
__dso_handle():
/home/schenkj/os2022/sp/sources/userspace/cxxabi.cpp:27
}

extern "C" void __dso_handle()
{
    8134:	e52db004 	push	{fp}		; (str fp, [sp, #-4]!)
    8138:	e28db000 	add	fp, sp, #0
/home/schenkj/os2022/sp/sources/userspace/cxxabi.cpp:29
    // ignore dtors for now
}
    813c:	e320f000 	nop	{0}
    8140:	e28bd000 	add	sp, fp, #0
    8144:	e49db004 	pop	{fp}		; (ldr fp, [sp], #4)
    8148:	e12fff1e 	bx	lr

0000814c <__cxa_atexit>:
__cxa_atexit():
/home/schenkj/os2022/sp/sources/userspace/cxxabi.cpp:32

extern "C" void __cxa_atexit()
{
    814c:	e52db004 	push	{fp}		; (str fp, [sp, #-4]!)
    8150:	e28db000 	add	fp, sp, #0
/home/schenkj/os2022/sp/sources/userspace/cxxabi.cpp:34
    // ignore dtors for now
}
    8154:	e320f000 	nop	{0}
    8158:	e28bd000 	add	sp, fp, #0
    815c:	e49db004 	pop	{fp}		; (ldr fp, [sp], #4)
    8160:	e12fff1e 	bx	lr

00008164 <__cxa_pure_virtual>:
__cxa_pure_virtual():
/home/schenkj/os2022/sp/sources/userspace/cxxabi.cpp:37

extern "C" void __cxa_pure_virtual()
{
    8164:	e52db004 	push	{fp}		; (str fp, [sp, #-4]!)
    8168:	e28db000 	add	fp, sp, #0
/home/schenkj/os2022/sp/sources/userspace/cxxabi.cpp:39
    // pure virtual method called
}
    816c:	e320f000 	nop	{0}
    8170:	e28bd000 	add	sp, fp, #0
    8174:	e49db004 	pop	{fp}		; (ldr fp, [sp], #4)
    8178:	e12fff1e 	bx	lr

0000817c <__aeabi_unwind_cpp_pr1>:
__aeabi_unwind_cpp_pr1():
/home/schenkj/os2022/sp/sources/userspace/cxxabi.cpp:42

extern "C" void __aeabi_unwind_cpp_pr1()
{
    817c:	e52db004 	push	{fp}		; (str fp, [sp, #-4]!)
    8180:	e28db000 	add	fp, sp, #0
/home/schenkj/os2022/sp/sources/userspace/cxxabi.cpp:43 (discriminator 1)
	while (true)
    8184:	eafffffe 	b	8184 <__aeabi_unwind_cpp_pr1+0x8>

00008188 <_cpp_startup>:
_cpp_startup():
/home/schenkj/os2022/sp/sources/userspace/cxxabi.cpp:61
extern "C" dtor_ptr __DTOR_LIST__[0];
// konec pole destruktoru
extern "C" dtor_ptr __DTOR_END__[0];

extern "C" int _cpp_startup(void)
{
    8188:	e92d4800 	push	{fp, lr}
    818c:	e28db004 	add	fp, sp, #4
    8190:	e24dd008 	sub	sp, sp, #8
/home/schenkj/os2022/sp/sources/userspace/cxxabi.cpp:66
	ctor_ptr* fnptr;
	
	// zavolame konstruktory globalnich C++ trid
	// v poli __CTOR_LIST__ jsou ukazatele na vygenerovane stuby volani konstruktoru
	for (fnptr = __CTOR_LIST__; fnptr < __CTOR_END__; fnptr++)
    8194:	e59f303c 	ldr	r3, [pc, #60]	; 81d8 <_cpp_startup+0x50>
    8198:	e50b3008 	str	r3, [fp, #-8]
/home/schenkj/os2022/sp/sources/userspace/cxxabi.cpp:66 (discriminator 3)
    819c:	e51b3008 	ldr	r3, [fp, #-8]
    81a0:	e59f2034 	ldr	r2, [pc, #52]	; 81dc <_cpp_startup+0x54>
    81a4:	e1530002 	cmp	r3, r2
    81a8:	2a000006 	bcs	81c8 <_cpp_startup+0x40>
/home/schenkj/os2022/sp/sources/userspace/cxxabi.cpp:67 (discriminator 2)
		(*fnptr)();
    81ac:	e51b3008 	ldr	r3, [fp, #-8]
    81b0:	e5933000 	ldr	r3, [r3]
    81b4:	e12fff33 	blx	r3
/home/schenkj/os2022/sp/sources/userspace/cxxabi.cpp:66 (discriminator 2)
	for (fnptr = __CTOR_LIST__; fnptr < __CTOR_END__; fnptr++)
    81b8:	e51b3008 	ldr	r3, [fp, #-8]
    81bc:	e2833004 	add	r3, r3, #4
    81c0:	e50b3008 	str	r3, [fp, #-8]
    81c4:	eafffff4 	b	819c <_cpp_startup+0x14>
/home/schenkj/os2022/sp/sources/userspace/cxxabi.cpp:69
	
	return 0;
    81c8:	e3a03000 	mov	r3, #0
/home/schenkj/os2022/sp/sources/userspace/cxxabi.cpp:70
}
    81cc:	e1a00003 	mov	r0, r3
    81d0:	e24bd004 	sub	sp, fp, #4
    81d4:	e8bd8800 	pop	{fp, pc}
    81d8:	00009720 	andeq	r9, r0, r0, lsr #14
    81dc:	00009720 	andeq	r9, r0, r0, lsr #14

000081e0 <_cpp_shutdown>:
_cpp_shutdown():
/home/schenkj/os2022/sp/sources/userspace/cxxabi.cpp:73

extern "C" int _cpp_shutdown(void)
{
    81e0:	e92d4800 	push	{fp, lr}
    81e4:	e28db004 	add	fp, sp, #4
    81e8:	e24dd008 	sub	sp, sp, #8
/home/schenkj/os2022/sp/sources/userspace/cxxabi.cpp:77
	dtor_ptr* fnptr;
	
	// zavolame destruktory globalnich C++ trid
	for (fnptr = __DTOR_LIST__; fnptr < __DTOR_END__; fnptr++)
    81ec:	e59f303c 	ldr	r3, [pc, #60]	; 8230 <_cpp_shutdown+0x50>
    81f0:	e50b3008 	str	r3, [fp, #-8]
/home/schenkj/os2022/sp/sources/userspace/cxxabi.cpp:77 (discriminator 3)
    81f4:	e51b3008 	ldr	r3, [fp, #-8]
    81f8:	e59f2034 	ldr	r2, [pc, #52]	; 8234 <_cpp_shutdown+0x54>
    81fc:	e1530002 	cmp	r3, r2
    8200:	2a000006 	bcs	8220 <_cpp_shutdown+0x40>
/home/schenkj/os2022/sp/sources/userspace/cxxabi.cpp:78 (discriminator 2)
		(*fnptr)();
    8204:	e51b3008 	ldr	r3, [fp, #-8]
    8208:	e5933000 	ldr	r3, [r3]
    820c:	e12fff33 	blx	r3
/home/schenkj/os2022/sp/sources/userspace/cxxabi.cpp:77 (discriminator 2)
	for (fnptr = __DTOR_LIST__; fnptr < __DTOR_END__; fnptr++)
    8210:	e51b3008 	ldr	r3, [fp, #-8]
    8214:	e2833004 	add	r3, r3, #4
    8218:	e50b3008 	str	r3, [fp, #-8]
    821c:	eafffff4 	b	81f4 <_cpp_shutdown+0x14>
/home/schenkj/os2022/sp/sources/userspace/cxxabi.cpp:80
	
	return 0;
    8220:	e3a03000 	mov	r3, #0
/home/schenkj/os2022/sp/sources/userspace/cxxabi.cpp:81
}
    8224:	e1a00003 	mov	r0, r3
    8228:	e24bd004 	sub	sp, fp, #4
    822c:	e8bd8800 	pop	{fp, pc}
    8230:	00009720 	andeq	r9, r0, r0, lsr #14
    8234:	00009720 	andeq	r9, r0, r0, lsr #14

00008238 <main>:
main():
/home/schenkj/os2022/sp/sources/userspace/oled_task/main.cpp:27
	"My favourite sport is ARM wrestling",
	"Old MacDonald had a farm, EIGRP",
};

int main(int argc, char** argv)
{
    8238:	e92d4800 	push	{fp, lr}
    823c:	e28db004 	add	fp, sp, #4
    8240:	e24dd020 	sub	sp, sp, #32
    8244:	e50b0020 	str	r0, [fp, #-32]	; 0xffffffe0
    8248:	e50b1024 	str	r1, [fp, #-36]	; 0xffffffdc
/home/schenkj/os2022/sp/sources/userspace/oled_task/main.cpp:28
	COLED_Display disp("DEV:oled");
    824c:	e24b3014 	sub	r3, fp, #20
    8250:	e59f10d8 	ldr	r1, [pc, #216]	; 8330 <main+0xf8>
    8254:	e1a00003 	mov	r0, r3
    8258:	eb00027e 	bl	8c58 <_ZN13COLED_DisplayC1EPKc>
/home/schenkj/os2022/sp/sources/userspace/oled_task/main.cpp:29
	disp.Clear(false);
    825c:	e24b3014 	sub	r3, fp, #20
    8260:	e3a01000 	mov	r1, #0
    8264:	e1a00003 	mov	r0, r3
    8268:	eb0002b1 	bl	8d34 <_ZN13COLED_Display5ClearEb>
/home/schenkj/os2022/sp/sources/userspace/oled_task/main.cpp:30
	disp.Put_String(10, 10, "KIV-RTOS init...");
    826c:	e24b0014 	sub	r0, fp, #20
    8270:	e59f30bc 	ldr	r3, [pc, #188]	; 8334 <main+0xfc>
    8274:	e3a0200a 	mov	r2, #10
    8278:	e3a0100a 	mov	r1, #10
    827c:	eb000376 	bl	905c <_ZN13COLED_Display10Put_StringEttPKc>
/home/schenkj/os2022/sp/sources/userspace/oled_task/main.cpp:31
	disp.Flip();
    8280:	e24b3014 	sub	r3, fp, #20
    8284:	e1a00003 	mov	r0, r3
    8288:	eb00035d 	bl	9004 <_ZN13COLED_Display4FlipEv>
/home/schenkj/os2022/sp/sources/userspace/oled_task/main.cpp:33

	uint32_t trng_file = open("DEV:trng", NFile_Open_Mode::Read_Only);
    828c:	e3a01000 	mov	r1, #0
    8290:	e59f00a0 	ldr	r0, [pc, #160]	; 8338 <main+0x100>
    8294:	eb000047 	bl	83b8 <_Z4openPKc15NFile_Open_Mode>
    8298:	e50b0008 	str	r0, [fp, #-8]
/home/schenkj/os2022/sp/sources/userspace/oled_task/main.cpp:34
	uint32_t num = 0;
    829c:	e3a03000 	mov	r3, #0
    82a0:	e50b3018 	str	r3, [fp, #-24]	; 0xffffffe8
/home/schenkj/os2022/sp/sources/userspace/oled_task/main.cpp:36

	sleep(0x800, 0x800);
    82a4:	e3a01b02 	mov	r1, #2048	; 0x800
    82a8:	e3a00b02 	mov	r0, #2048	; 0x800
    82ac:	eb0000be 	bl	85ac <_Z5sleepjj>
/home/schenkj/os2022/sp/sources/userspace/oled_task/main.cpp:41 (discriminator 1)

	while (true)
	{
		// ziskame si nahodne cislo a vybereme podle toho zpravu
		read(trng_file, reinterpret_cast<char*>(&num), sizeof(num));
    82b0:	e24b3018 	sub	r3, fp, #24
    82b4:	e3a02004 	mov	r2, #4
    82b8:	e1a01003 	mov	r1, r3
    82bc:	e51b0008 	ldr	r0, [fp, #-8]
    82c0:	eb00004d 	bl	83fc <_Z4readjPcj>
/home/schenkj/os2022/sp/sources/userspace/oled_task/main.cpp:42 (discriminator 1)
		const char* msg = messages[num % (sizeof(messages) / sizeof(const char*))];
    82c4:	e51b1018 	ldr	r1, [fp, #-24]	; 0xffffffe8
    82c8:	e59f306c 	ldr	r3, [pc, #108]	; 833c <main+0x104>
    82cc:	e0832193 	umull	r2, r3, r3, r1
    82d0:	e1a02123 	lsr	r2, r3, #2
    82d4:	e1a03002 	mov	r3, r2
    82d8:	e1a03103 	lsl	r3, r3, #2
    82dc:	e0833002 	add	r3, r3, r2
    82e0:	e0412003 	sub	r2, r1, r3
    82e4:	e59f3054 	ldr	r3, [pc, #84]	; 8340 <main+0x108>
    82e8:	e7933102 	ldr	r3, [r3, r2, lsl #2]
    82ec:	e50b300c 	str	r3, [fp, #-12]
/home/schenkj/os2022/sp/sources/userspace/oled_task/main.cpp:44 (discriminator 1)

		disp.Clear(false);
    82f0:	e24b3014 	sub	r3, fp, #20
    82f4:	e3a01000 	mov	r1, #0
    82f8:	e1a00003 	mov	r0, r3
    82fc:	eb00028c 	bl	8d34 <_ZN13COLED_Display5ClearEb>
/home/schenkj/os2022/sp/sources/userspace/oled_task/main.cpp:45 (discriminator 1)
		disp.Put_String(0, 0, msg);
    8300:	e24b0014 	sub	r0, fp, #20
    8304:	e51b300c 	ldr	r3, [fp, #-12]
    8308:	e3a02000 	mov	r2, #0
    830c:	e3a01000 	mov	r1, #0
    8310:	eb000351 	bl	905c <_ZN13COLED_Display10Put_StringEttPKc>
/home/schenkj/os2022/sp/sources/userspace/oled_task/main.cpp:46 (discriminator 1)
		disp.Flip();
    8314:	e24b3014 	sub	r3, fp, #20
    8318:	e1a00003 	mov	r0, r3
    831c:	eb000338 	bl	9004 <_ZN13COLED_Display4FlipEv>
/home/schenkj/os2022/sp/sources/userspace/oled_task/main.cpp:48 (discriminator 1)

		sleep(0x4000, 0x800); // TODO: z tohohle bude casem cekani na podminkove promenne (na eventu) s timeoutem
    8320:	e3a01b02 	mov	r1, #2048	; 0x800
    8324:	e3a00901 	mov	r0, #16384	; 0x4000
    8328:	eb00009f 	bl	85ac <_Z5sleepjj>
/home/schenkj/os2022/sp/sources/userspace/oled_task/main.cpp:49 (discriminator 1)
	}
    832c:	eaffffdf 	b	82b0 <main+0x78>
    8330:	00009404 	andeq	r9, r0, r4, lsl #8
    8334:	00009410 	andeq	r9, r0, r0, lsl r4
    8338:	00009424 	andeq	r9, r0, r4, lsr #8
    833c:	cccccccd 	stclgt	12, cr12, [ip], {205}	; 0xcd
    8340:	00009720 	andeq	r9, r0, r0, lsr #14

00008344 <_Z6getpidv>:
_Z6getpidv():
/home/schenkj/os2022/sp/sources/stdlib/src/stdfile.cpp:5
#include <stdfile.h>
#include <stdstring.h>

uint32_t getpid()
{
    8344:	e52db004 	push	{fp}		; (str fp, [sp, #-4]!)
    8348:	e28db000 	add	fp, sp, #0
    834c:	e24dd00c 	sub	sp, sp, #12
/home/schenkj/os2022/sp/sources/stdlib/src/stdfile.cpp:8
    uint32_t pid;

    asm volatile("swi 0");
    8350:	ef000000 	svc	0x00000000
/home/schenkj/os2022/sp/sources/stdlib/src/stdfile.cpp:9
    asm volatile("mov %0, r0" : "=r" (pid));
    8354:	e1a03000 	mov	r3, r0
    8358:	e50b3008 	str	r3, [fp, #-8]
/home/schenkj/os2022/sp/sources/stdlib/src/stdfile.cpp:11

    return pid;
    835c:	e51b3008 	ldr	r3, [fp, #-8]
/home/schenkj/os2022/sp/sources/stdlib/src/stdfile.cpp:12
}
    8360:	e1a00003 	mov	r0, r3
    8364:	e28bd000 	add	sp, fp, #0
    8368:	e49db004 	pop	{fp}		; (ldr fp, [sp], #4)
    836c:	e12fff1e 	bx	lr

00008370 <_Z9terminatei>:
_Z9terminatei():
/home/schenkj/os2022/sp/sources/stdlib/src/stdfile.cpp:15

void terminate(int exitcode)
{
    8370:	e52db004 	push	{fp}		; (str fp, [sp, #-4]!)
    8374:	e28db000 	add	fp, sp, #0
    8378:	e24dd00c 	sub	sp, sp, #12
    837c:	e50b0008 	str	r0, [fp, #-8]
/home/schenkj/os2022/sp/sources/stdlib/src/stdfile.cpp:16
    asm volatile("mov r0, %0" : : "r" (exitcode));
    8380:	e51b3008 	ldr	r3, [fp, #-8]
    8384:	e1a00003 	mov	r0, r3
/home/schenkj/os2022/sp/sources/stdlib/src/stdfile.cpp:17
    asm volatile("swi 1");
    8388:	ef000001 	svc	0x00000001
/home/schenkj/os2022/sp/sources/stdlib/src/stdfile.cpp:18
}
    838c:	e320f000 	nop	{0}
    8390:	e28bd000 	add	sp, fp, #0
    8394:	e49db004 	pop	{fp}		; (ldr fp, [sp], #4)
    8398:	e12fff1e 	bx	lr

0000839c <_Z11sched_yieldv>:
_Z11sched_yieldv():
/home/schenkj/os2022/sp/sources/stdlib/src/stdfile.cpp:21

void sched_yield()
{
    839c:	e52db004 	push	{fp}		; (str fp, [sp, #-4]!)
    83a0:	e28db000 	add	fp, sp, #0
/home/schenkj/os2022/sp/sources/stdlib/src/stdfile.cpp:22
    asm volatile("swi 2");
    83a4:	ef000002 	svc	0x00000002
/home/schenkj/os2022/sp/sources/stdlib/src/stdfile.cpp:23
}
    83a8:	e320f000 	nop	{0}
    83ac:	e28bd000 	add	sp, fp, #0
    83b0:	e49db004 	pop	{fp}		; (ldr fp, [sp], #4)
    83b4:	e12fff1e 	bx	lr

000083b8 <_Z4openPKc15NFile_Open_Mode>:
_Z4openPKc15NFile_Open_Mode():
/home/schenkj/os2022/sp/sources/stdlib/src/stdfile.cpp:26

uint32_t open(const char* filename, NFile_Open_Mode mode)
{
    83b8:	e52db004 	push	{fp}		; (str fp, [sp, #-4]!)
    83bc:	e28db000 	add	fp, sp, #0
    83c0:	e24dd014 	sub	sp, sp, #20
    83c4:	e50b0010 	str	r0, [fp, #-16]
    83c8:	e50b1014 	str	r1, [fp, #-20]	; 0xffffffec
/home/schenkj/os2022/sp/sources/stdlib/src/stdfile.cpp:29
    uint32_t file;

    asm volatile("mov r0, %0" : : "r" (filename));
    83cc:	e51b3010 	ldr	r3, [fp, #-16]
    83d0:	e1a00003 	mov	r0, r3
/home/schenkj/os2022/sp/sources/stdlib/src/stdfile.cpp:30
    asm volatile("mov r1, %0" : : "r" (mode));
    83d4:	e51b3014 	ldr	r3, [fp, #-20]	; 0xffffffec
    83d8:	e1a01003 	mov	r1, r3
/home/schenkj/os2022/sp/sources/stdlib/src/stdfile.cpp:31
    asm volatile("swi 64");
    83dc:	ef000040 	svc	0x00000040
/home/schenkj/os2022/sp/sources/stdlib/src/stdfile.cpp:32
    asm volatile("mov %0, r0" : "=r" (file));
    83e0:	e1a03000 	mov	r3, r0
    83e4:	e50b3008 	str	r3, [fp, #-8]
/home/schenkj/os2022/sp/sources/stdlib/src/stdfile.cpp:34

    return file;
    83e8:	e51b3008 	ldr	r3, [fp, #-8]
/home/schenkj/os2022/sp/sources/stdlib/src/stdfile.cpp:35
}
    83ec:	e1a00003 	mov	r0, r3
    83f0:	e28bd000 	add	sp, fp, #0
    83f4:	e49db004 	pop	{fp}		; (ldr fp, [sp], #4)
    83f8:	e12fff1e 	bx	lr

000083fc <_Z4readjPcj>:
_Z4readjPcj():
/home/schenkj/os2022/sp/sources/stdlib/src/stdfile.cpp:38

uint32_t read(uint32_t file, char* const buffer, uint32_t size)
{
    83fc:	e52db004 	push	{fp}		; (str fp, [sp, #-4]!)
    8400:	e28db000 	add	fp, sp, #0
    8404:	e24dd01c 	sub	sp, sp, #28
    8408:	e50b0010 	str	r0, [fp, #-16]
    840c:	e50b1014 	str	r1, [fp, #-20]	; 0xffffffec
    8410:	e50b2018 	str	r2, [fp, #-24]	; 0xffffffe8
/home/schenkj/os2022/sp/sources/stdlib/src/stdfile.cpp:41
    uint32_t rdnum;

    asm volatile("mov r0, %0" : : "r" (file));
    8414:	e51b3010 	ldr	r3, [fp, #-16]
    8418:	e1a00003 	mov	r0, r3
/home/schenkj/os2022/sp/sources/stdlib/src/stdfile.cpp:42
    asm volatile("mov r1, %0" : : "r" (buffer));
    841c:	e51b3014 	ldr	r3, [fp, #-20]	; 0xffffffec
    8420:	e1a01003 	mov	r1, r3
/home/schenkj/os2022/sp/sources/stdlib/src/stdfile.cpp:43
    asm volatile("mov r2, %0" : : "r" (size));
    8424:	e51b3018 	ldr	r3, [fp, #-24]	; 0xffffffe8
    8428:	e1a02003 	mov	r2, r3
/home/schenkj/os2022/sp/sources/stdlib/src/stdfile.cpp:44
    asm volatile("swi 65");
    842c:	ef000041 	svc	0x00000041
/home/schenkj/os2022/sp/sources/stdlib/src/stdfile.cpp:45
    asm volatile("mov %0, r0" : "=r" (rdnum));
    8430:	e1a03000 	mov	r3, r0
    8434:	e50b3008 	str	r3, [fp, #-8]
/home/schenkj/os2022/sp/sources/stdlib/src/stdfile.cpp:47

    return rdnum;
    8438:	e51b3008 	ldr	r3, [fp, #-8]
/home/schenkj/os2022/sp/sources/stdlib/src/stdfile.cpp:48
}
    843c:	e1a00003 	mov	r0, r3
    8440:	e28bd000 	add	sp, fp, #0
    8444:	e49db004 	pop	{fp}		; (ldr fp, [sp], #4)
    8448:	e12fff1e 	bx	lr

0000844c <_Z5writejPKcj>:
_Z5writejPKcj():
/home/schenkj/os2022/sp/sources/stdlib/src/stdfile.cpp:51

uint32_t write(uint32_t file, const char* buffer, uint32_t size)
{
    844c:	e52db004 	push	{fp}		; (str fp, [sp, #-4]!)
    8450:	e28db000 	add	fp, sp, #0
    8454:	e24dd01c 	sub	sp, sp, #28
    8458:	e50b0010 	str	r0, [fp, #-16]
    845c:	e50b1014 	str	r1, [fp, #-20]	; 0xffffffec
    8460:	e50b2018 	str	r2, [fp, #-24]	; 0xffffffe8
/home/schenkj/os2022/sp/sources/stdlib/src/stdfile.cpp:54
    uint32_t wrnum;

    asm volatile("mov r0, %0" : : "r" (file));
    8464:	e51b3010 	ldr	r3, [fp, #-16]
    8468:	e1a00003 	mov	r0, r3
/home/schenkj/os2022/sp/sources/stdlib/src/stdfile.cpp:55
    asm volatile("mov r1, %0" : : "r" (buffer));
    846c:	e51b3014 	ldr	r3, [fp, #-20]	; 0xffffffec
    8470:	e1a01003 	mov	r1, r3
/home/schenkj/os2022/sp/sources/stdlib/src/stdfile.cpp:56
    asm volatile("mov r2, %0" : : "r" (size));
    8474:	e51b3018 	ldr	r3, [fp, #-24]	; 0xffffffe8
    8478:	e1a02003 	mov	r2, r3
/home/schenkj/os2022/sp/sources/stdlib/src/stdfile.cpp:57
    asm volatile("swi 66");
    847c:	ef000042 	svc	0x00000042
/home/schenkj/os2022/sp/sources/stdlib/src/stdfile.cpp:58
    asm volatile("mov %0, r0" : "=r" (wrnum));
    8480:	e1a03000 	mov	r3, r0
    8484:	e50b3008 	str	r3, [fp, #-8]
/home/schenkj/os2022/sp/sources/stdlib/src/stdfile.cpp:60

    return wrnum;
    8488:	e51b3008 	ldr	r3, [fp, #-8]
/home/schenkj/os2022/sp/sources/stdlib/src/stdfile.cpp:61
}
    848c:	e1a00003 	mov	r0, r3
    8490:	e28bd000 	add	sp, fp, #0
    8494:	e49db004 	pop	{fp}		; (ldr fp, [sp], #4)
    8498:	e12fff1e 	bx	lr

0000849c <_Z5closej>:
_Z5closej():
/home/schenkj/os2022/sp/sources/stdlib/src/stdfile.cpp:64

void close(uint32_t file)
{
    849c:	e52db004 	push	{fp}		; (str fp, [sp, #-4]!)
    84a0:	e28db000 	add	fp, sp, #0
    84a4:	e24dd00c 	sub	sp, sp, #12
    84a8:	e50b0008 	str	r0, [fp, #-8]
/home/schenkj/os2022/sp/sources/stdlib/src/stdfile.cpp:65
    asm volatile("mov r0, %0" : : "r" (file));
    84ac:	e51b3008 	ldr	r3, [fp, #-8]
    84b0:	e1a00003 	mov	r0, r3
/home/schenkj/os2022/sp/sources/stdlib/src/stdfile.cpp:66
    asm volatile("swi 67");
    84b4:	ef000043 	svc	0x00000043
/home/schenkj/os2022/sp/sources/stdlib/src/stdfile.cpp:67
}
    84b8:	e320f000 	nop	{0}
    84bc:	e28bd000 	add	sp, fp, #0
    84c0:	e49db004 	pop	{fp}		; (ldr fp, [sp], #4)
    84c4:	e12fff1e 	bx	lr

000084c8 <_Z5ioctlj16NIOCtl_OperationPv>:
_Z5ioctlj16NIOCtl_OperationPv():
/home/schenkj/os2022/sp/sources/stdlib/src/stdfile.cpp:70

uint32_t ioctl(uint32_t file, NIOCtl_Operation operation, void* param)
{
    84c8:	e52db004 	push	{fp}		; (str fp, [sp, #-4]!)
    84cc:	e28db000 	add	fp, sp, #0
    84d0:	e24dd01c 	sub	sp, sp, #28
    84d4:	e50b0010 	str	r0, [fp, #-16]
    84d8:	e50b1014 	str	r1, [fp, #-20]	; 0xffffffec
    84dc:	e50b2018 	str	r2, [fp, #-24]	; 0xffffffe8
/home/schenkj/os2022/sp/sources/stdlib/src/stdfile.cpp:73
    uint32_t retcode;

    asm volatile("mov r0, %0" : : "r" (file));
    84e0:	e51b3010 	ldr	r3, [fp, #-16]
    84e4:	e1a00003 	mov	r0, r3
/home/schenkj/os2022/sp/sources/stdlib/src/stdfile.cpp:74
    asm volatile("mov r1, %0" : : "r" (operation));
    84e8:	e51b3014 	ldr	r3, [fp, #-20]	; 0xffffffec
    84ec:	e1a01003 	mov	r1, r3
/home/schenkj/os2022/sp/sources/stdlib/src/stdfile.cpp:75
    asm volatile("mov r2, %0" : : "r" (param));
    84f0:	e51b3018 	ldr	r3, [fp, #-24]	; 0xffffffe8
    84f4:	e1a02003 	mov	r2, r3
/home/schenkj/os2022/sp/sources/stdlib/src/stdfile.cpp:76
    asm volatile("swi 68");
    84f8:	ef000044 	svc	0x00000044
/home/schenkj/os2022/sp/sources/stdlib/src/stdfile.cpp:77
    asm volatile("mov %0, r0" : "=r" (retcode));
    84fc:	e1a03000 	mov	r3, r0
    8500:	e50b3008 	str	r3, [fp, #-8]
/home/schenkj/os2022/sp/sources/stdlib/src/stdfile.cpp:79

    return retcode;
    8504:	e51b3008 	ldr	r3, [fp, #-8]
/home/schenkj/os2022/sp/sources/stdlib/src/stdfile.cpp:80
}
    8508:	e1a00003 	mov	r0, r3
    850c:	e28bd000 	add	sp, fp, #0
    8510:	e49db004 	pop	{fp}		; (ldr fp, [sp], #4)
    8514:	e12fff1e 	bx	lr

00008518 <_Z6notifyjj>:
_Z6notifyjj():
/home/schenkj/os2022/sp/sources/stdlib/src/stdfile.cpp:83

uint32_t notify(uint32_t file, uint32_t count)
{
    8518:	e52db004 	push	{fp}		; (str fp, [sp, #-4]!)
    851c:	e28db000 	add	fp, sp, #0
    8520:	e24dd014 	sub	sp, sp, #20
    8524:	e50b0010 	str	r0, [fp, #-16]
    8528:	e50b1014 	str	r1, [fp, #-20]	; 0xffffffec
/home/schenkj/os2022/sp/sources/stdlib/src/stdfile.cpp:86
    uint32_t retcnt;

    asm volatile("mov r0, %0" : : "r" (file));
    852c:	e51b3010 	ldr	r3, [fp, #-16]
    8530:	e1a00003 	mov	r0, r3
/home/schenkj/os2022/sp/sources/stdlib/src/stdfile.cpp:87
    asm volatile("mov r1, %0" : : "r" (count));
    8534:	e51b3014 	ldr	r3, [fp, #-20]	; 0xffffffec
    8538:	e1a01003 	mov	r1, r3
/home/schenkj/os2022/sp/sources/stdlib/src/stdfile.cpp:88
    asm volatile("swi 69");
    853c:	ef000045 	svc	0x00000045
/home/schenkj/os2022/sp/sources/stdlib/src/stdfile.cpp:89
    asm volatile("mov %0, r0" : "=r" (retcnt));
    8540:	e1a03000 	mov	r3, r0
    8544:	e50b3008 	str	r3, [fp, #-8]
/home/schenkj/os2022/sp/sources/stdlib/src/stdfile.cpp:91

    return retcnt;
    8548:	e51b3008 	ldr	r3, [fp, #-8]
/home/schenkj/os2022/sp/sources/stdlib/src/stdfile.cpp:92
}
    854c:	e1a00003 	mov	r0, r3
    8550:	e28bd000 	add	sp, fp, #0
    8554:	e49db004 	pop	{fp}		; (ldr fp, [sp], #4)
    8558:	e12fff1e 	bx	lr

0000855c <_Z4waitjjj>:
_Z4waitjjj():
/home/schenkj/os2022/sp/sources/stdlib/src/stdfile.cpp:95

NSWI_Result_Code wait(uint32_t file, uint32_t count, uint32_t notified_deadline)
{
    855c:	e52db004 	push	{fp}		; (str fp, [sp, #-4]!)
    8560:	e28db000 	add	fp, sp, #0
    8564:	e24dd01c 	sub	sp, sp, #28
    8568:	e50b0010 	str	r0, [fp, #-16]
    856c:	e50b1014 	str	r1, [fp, #-20]	; 0xffffffec
    8570:	e50b2018 	str	r2, [fp, #-24]	; 0xffffffe8
/home/schenkj/os2022/sp/sources/stdlib/src/stdfile.cpp:98
    NSWI_Result_Code retcode;

    asm volatile("mov r0, %0" : : "r" (file));
    8574:	e51b3010 	ldr	r3, [fp, #-16]
    8578:	e1a00003 	mov	r0, r3
/home/schenkj/os2022/sp/sources/stdlib/src/stdfile.cpp:99
    asm volatile("mov r1, %0" : : "r" (count));
    857c:	e51b3014 	ldr	r3, [fp, #-20]	; 0xffffffec
    8580:	e1a01003 	mov	r1, r3
/home/schenkj/os2022/sp/sources/stdlib/src/stdfile.cpp:100
    asm volatile("mov r2, %0" : : "r" (notified_deadline));
    8584:	e51b3018 	ldr	r3, [fp, #-24]	; 0xffffffe8
    8588:	e1a02003 	mov	r2, r3
/home/schenkj/os2022/sp/sources/stdlib/src/stdfile.cpp:101
    asm volatile("swi 70");
    858c:	ef000046 	svc	0x00000046
/home/schenkj/os2022/sp/sources/stdlib/src/stdfile.cpp:102
    asm volatile("mov %0, r0" : "=r" (retcode));
    8590:	e1a03000 	mov	r3, r0
    8594:	e50b3008 	str	r3, [fp, #-8]
/home/schenkj/os2022/sp/sources/stdlib/src/stdfile.cpp:104

    return retcode;
    8598:	e51b3008 	ldr	r3, [fp, #-8]
/home/schenkj/os2022/sp/sources/stdlib/src/stdfile.cpp:105
}
    859c:	e1a00003 	mov	r0, r3
    85a0:	e28bd000 	add	sp, fp, #0
    85a4:	e49db004 	pop	{fp}		; (ldr fp, [sp], #4)
    85a8:	e12fff1e 	bx	lr

000085ac <_Z5sleepjj>:
_Z5sleepjj():
/home/schenkj/os2022/sp/sources/stdlib/src/stdfile.cpp:108

bool sleep(uint32_t ticks, uint32_t notified_deadline)
{
    85ac:	e52db004 	push	{fp}		; (str fp, [sp, #-4]!)
    85b0:	e28db000 	add	fp, sp, #0
    85b4:	e24dd014 	sub	sp, sp, #20
    85b8:	e50b0010 	str	r0, [fp, #-16]
    85bc:	e50b1014 	str	r1, [fp, #-20]	; 0xffffffec
/home/schenkj/os2022/sp/sources/stdlib/src/stdfile.cpp:111
    uint32_t retcode;

    asm volatile("mov r0, %0" : : "r" (ticks));
    85c0:	e51b3010 	ldr	r3, [fp, #-16]
    85c4:	e1a00003 	mov	r0, r3
/home/schenkj/os2022/sp/sources/stdlib/src/stdfile.cpp:112
    asm volatile("mov r1, %0" : : "r" (notified_deadline));
    85c8:	e51b3014 	ldr	r3, [fp, #-20]	; 0xffffffec
    85cc:	e1a01003 	mov	r1, r3
/home/schenkj/os2022/sp/sources/stdlib/src/stdfile.cpp:113
    asm volatile("swi 3");
    85d0:	ef000003 	svc	0x00000003
/home/schenkj/os2022/sp/sources/stdlib/src/stdfile.cpp:114
    asm volatile("mov %0, r0" : "=r" (retcode));
    85d4:	e1a03000 	mov	r3, r0
    85d8:	e50b3008 	str	r3, [fp, #-8]
/home/schenkj/os2022/sp/sources/stdlib/src/stdfile.cpp:116

    return retcode;
    85dc:	e51b3008 	ldr	r3, [fp, #-8]
    85e0:	e3530000 	cmp	r3, #0
    85e4:	13a03001 	movne	r3, #1
    85e8:	03a03000 	moveq	r3, #0
    85ec:	e6ef3073 	uxtb	r3, r3
/home/schenkj/os2022/sp/sources/stdlib/src/stdfile.cpp:117
}
    85f0:	e1a00003 	mov	r0, r3
    85f4:	e28bd000 	add	sp, fp, #0
    85f8:	e49db004 	pop	{fp}		; (ldr fp, [sp], #4)
    85fc:	e12fff1e 	bx	lr

00008600 <_Z24get_active_process_countv>:
_Z24get_active_process_countv():
/home/schenkj/os2022/sp/sources/stdlib/src/stdfile.cpp:120

uint32_t get_active_process_count()
{
    8600:	e52db004 	push	{fp}		; (str fp, [sp, #-4]!)
    8604:	e28db000 	add	fp, sp, #0
    8608:	e24dd00c 	sub	sp, sp, #12
/home/schenkj/os2022/sp/sources/stdlib/src/stdfile.cpp:121
    const NGet_Sched_Info_Type req = NGet_Sched_Info_Type::Active_Process_Count;
    860c:	e3a03000 	mov	r3, #0
    8610:	e50b3008 	str	r3, [fp, #-8]
/home/schenkj/os2022/sp/sources/stdlib/src/stdfile.cpp:124
    uint32_t retval;

    asm volatile("mov r0, %0" : : "r" (req));
    8614:	e3a03000 	mov	r3, #0
    8618:	e1a00003 	mov	r0, r3
/home/schenkj/os2022/sp/sources/stdlib/src/stdfile.cpp:125
    asm volatile("mov r1, %0" : : "r" (&retval));
    861c:	e24b300c 	sub	r3, fp, #12
    8620:	e1a01003 	mov	r1, r3
/home/schenkj/os2022/sp/sources/stdlib/src/stdfile.cpp:126
    asm volatile("swi 4");
    8624:	ef000004 	svc	0x00000004
/home/schenkj/os2022/sp/sources/stdlib/src/stdfile.cpp:128

    return retval;
    8628:	e51b300c 	ldr	r3, [fp, #-12]
/home/schenkj/os2022/sp/sources/stdlib/src/stdfile.cpp:129
}
    862c:	e1a00003 	mov	r0, r3
    8630:	e28bd000 	add	sp, fp, #0
    8634:	e49db004 	pop	{fp}		; (ldr fp, [sp], #4)
    8638:	e12fff1e 	bx	lr

0000863c <_Z14get_tick_countv>:
_Z14get_tick_countv():
/home/schenkj/os2022/sp/sources/stdlib/src/stdfile.cpp:132

uint32_t get_tick_count()
{
    863c:	e52db004 	push	{fp}		; (str fp, [sp, #-4]!)
    8640:	e28db000 	add	fp, sp, #0
    8644:	e24dd00c 	sub	sp, sp, #12
/home/schenkj/os2022/sp/sources/stdlib/src/stdfile.cpp:133
    const NGet_Sched_Info_Type req = NGet_Sched_Info_Type::Tick_Count;
    8648:	e3a03001 	mov	r3, #1
    864c:	e50b3008 	str	r3, [fp, #-8]
/home/schenkj/os2022/sp/sources/stdlib/src/stdfile.cpp:136
    uint32_t retval;

    asm volatile("mov r0, %0" : : "r" (req));
    8650:	e3a03001 	mov	r3, #1
    8654:	e1a00003 	mov	r0, r3
/home/schenkj/os2022/sp/sources/stdlib/src/stdfile.cpp:137
    asm volatile("mov r1, %0" : : "r" (&retval));
    8658:	e24b300c 	sub	r3, fp, #12
    865c:	e1a01003 	mov	r1, r3
/home/schenkj/os2022/sp/sources/stdlib/src/stdfile.cpp:138
    asm volatile("swi 4");
    8660:	ef000004 	svc	0x00000004
/home/schenkj/os2022/sp/sources/stdlib/src/stdfile.cpp:140

    return retval;
    8664:	e51b300c 	ldr	r3, [fp, #-12]
/home/schenkj/os2022/sp/sources/stdlib/src/stdfile.cpp:141
}
    8668:	e1a00003 	mov	r0, r3
    866c:	e28bd000 	add	sp, fp, #0
    8670:	e49db004 	pop	{fp}		; (ldr fp, [sp], #4)
    8674:	e12fff1e 	bx	lr

00008678 <_Z17set_task_deadlinej>:
_Z17set_task_deadlinej():
/home/schenkj/os2022/sp/sources/stdlib/src/stdfile.cpp:144

void set_task_deadline(uint32_t tick_count_required)
{
    8678:	e52db004 	push	{fp}		; (str fp, [sp, #-4]!)
    867c:	e28db000 	add	fp, sp, #0
    8680:	e24dd014 	sub	sp, sp, #20
    8684:	e50b0010 	str	r0, [fp, #-16]
/home/schenkj/os2022/sp/sources/stdlib/src/stdfile.cpp:145
    const NDeadline_Subservice req = NDeadline_Subservice::Set_Relative;
    8688:	e3a03000 	mov	r3, #0
    868c:	e50b3008 	str	r3, [fp, #-8]
/home/schenkj/os2022/sp/sources/stdlib/src/stdfile.cpp:147

    asm volatile("mov r0, %0" : : "r" (req));
    8690:	e3a03000 	mov	r3, #0
    8694:	e1a00003 	mov	r0, r3
/home/schenkj/os2022/sp/sources/stdlib/src/stdfile.cpp:148
    asm volatile("mov r1, %0" : : "r" (&tick_count_required));
    8698:	e24b3010 	sub	r3, fp, #16
    869c:	e1a01003 	mov	r1, r3
/home/schenkj/os2022/sp/sources/stdlib/src/stdfile.cpp:149
    asm volatile("swi 5");
    86a0:	ef000005 	svc	0x00000005
/home/schenkj/os2022/sp/sources/stdlib/src/stdfile.cpp:150
}
    86a4:	e320f000 	nop	{0}
    86a8:	e28bd000 	add	sp, fp, #0
    86ac:	e49db004 	pop	{fp}		; (ldr fp, [sp], #4)
    86b0:	e12fff1e 	bx	lr

000086b4 <_Z26get_task_ticks_to_deadlinev>:
_Z26get_task_ticks_to_deadlinev():
/home/schenkj/os2022/sp/sources/stdlib/src/stdfile.cpp:153

uint32_t get_task_ticks_to_deadline()
{
    86b4:	e52db004 	push	{fp}		; (str fp, [sp, #-4]!)
    86b8:	e28db000 	add	fp, sp, #0
    86bc:	e24dd00c 	sub	sp, sp, #12
/home/schenkj/os2022/sp/sources/stdlib/src/stdfile.cpp:154
    const NDeadline_Subservice req = NDeadline_Subservice::Get_Remaining;
    86c0:	e3a03001 	mov	r3, #1
    86c4:	e50b3008 	str	r3, [fp, #-8]
/home/schenkj/os2022/sp/sources/stdlib/src/stdfile.cpp:157
    uint32_t ticks;

    asm volatile("mov r0, %0" : : "r" (req));
    86c8:	e3a03001 	mov	r3, #1
    86cc:	e1a00003 	mov	r0, r3
/home/schenkj/os2022/sp/sources/stdlib/src/stdfile.cpp:158
    asm volatile("mov r1, %0" : : "r" (&ticks));
    86d0:	e24b300c 	sub	r3, fp, #12
    86d4:	e1a01003 	mov	r1, r3
/home/schenkj/os2022/sp/sources/stdlib/src/stdfile.cpp:159
    asm volatile("swi 5");
    86d8:	ef000005 	svc	0x00000005
/home/schenkj/os2022/sp/sources/stdlib/src/stdfile.cpp:161

    return ticks;
    86dc:	e51b300c 	ldr	r3, [fp, #-12]
/home/schenkj/os2022/sp/sources/stdlib/src/stdfile.cpp:162
}
    86e0:	e1a00003 	mov	r0, r3
    86e4:	e28bd000 	add	sp, fp, #0
    86e8:	e49db004 	pop	{fp}		; (ldr fp, [sp], #4)
    86ec:	e12fff1e 	bx	lr

000086f0 <_Z4pipePKcj>:
_Z4pipePKcj():
/home/schenkj/os2022/sp/sources/stdlib/src/stdfile.cpp:167

const char Pipe_File_Prefix[] = "SYS:pipe/";

uint32_t pipe(const char* name, uint32_t buf_size)
{
    86f0:	e92d4800 	push	{fp, lr}
    86f4:	e28db004 	add	fp, sp, #4
    86f8:	e24dd050 	sub	sp, sp, #80	; 0x50
    86fc:	e50b0050 	str	r0, [fp, #-80]	; 0xffffffb0
    8700:	e50b1054 	str	r1, [fp, #-84]	; 0xffffffac
/home/schenkj/os2022/sp/sources/stdlib/src/stdfile.cpp:169
    char fname[64];
    strncpy(fname, Pipe_File_Prefix, sizeof(Pipe_File_Prefix));
    8704:	e24b3048 	sub	r3, fp, #72	; 0x48
    8708:	e3a0200a 	mov	r2, #10
    870c:	e59f1088 	ldr	r1, [pc, #136]	; 879c <_Z4pipePKcj+0xac>
    8710:	e1a00003 	mov	r0, r3
    8714:	eb0000a5 	bl	89b0 <_Z7strncpyPcPKci>
/home/schenkj/os2022/sp/sources/stdlib/src/stdfile.cpp:170
    strncpy(fname + sizeof(Pipe_File_Prefix), name, sizeof(fname) - sizeof(Pipe_File_Prefix) - 1);
    8718:	e24b3048 	sub	r3, fp, #72	; 0x48
    871c:	e283300a 	add	r3, r3, #10
    8720:	e3a02035 	mov	r2, #53	; 0x35
    8724:	e51b1050 	ldr	r1, [fp, #-80]	; 0xffffffb0
    8728:	e1a00003 	mov	r0, r3
    872c:	eb00009f 	bl	89b0 <_Z7strncpyPcPKci>
/home/schenkj/os2022/sp/sources/stdlib/src/stdfile.cpp:172

    int ncur = sizeof(Pipe_File_Prefix) + strlen(name);
    8730:	e51b0050 	ldr	r0, [fp, #-80]	; 0xffffffb0
    8734:	eb0000f8 	bl	8b1c <_Z6strlenPKc>
    8738:	e1a03000 	mov	r3, r0
    873c:	e283300a 	add	r3, r3, #10
    8740:	e50b3008 	str	r3, [fp, #-8]
/home/schenkj/os2022/sp/sources/stdlib/src/stdfile.cpp:174

    fname[ncur++] = '#';
    8744:	e51b3008 	ldr	r3, [fp, #-8]
    8748:	e2832001 	add	r2, r3, #1
    874c:	e50b2008 	str	r2, [fp, #-8]
    8750:	e24b2004 	sub	r2, fp, #4
    8754:	e0823003 	add	r3, r2, r3
    8758:	e3a02023 	mov	r2, #35	; 0x23
    875c:	e5432044 	strb	r2, [r3, #-68]	; 0xffffffbc
/home/schenkj/os2022/sp/sources/stdlib/src/stdfile.cpp:176

    itoa(buf_size, &fname[ncur], 10);
    8760:	e24b2048 	sub	r2, fp, #72	; 0x48
    8764:	e51b3008 	ldr	r3, [fp, #-8]
    8768:	e0823003 	add	r3, r2, r3
    876c:	e3a0200a 	mov	r2, #10
    8770:	e1a01003 	mov	r1, r3
    8774:	e51b0054 	ldr	r0, [fp, #-84]	; 0xffffffac
    8778:	eb000008 	bl	87a0 <_Z4itoajPcj>
/home/schenkj/os2022/sp/sources/stdlib/src/stdfile.cpp:178

    return open(fname, NFile_Open_Mode::Read_Write);
    877c:	e24b3048 	sub	r3, fp, #72	; 0x48
    8780:	e3a01002 	mov	r1, #2
    8784:	e1a00003 	mov	r0, r3
    8788:	ebffff0a 	bl	83b8 <_Z4openPKc15NFile_Open_Mode>
    878c:	e1a03000 	mov	r3, r0
/home/schenkj/os2022/sp/sources/stdlib/src/stdfile.cpp:179
}
    8790:	e1a00003 	mov	r0, r3
    8794:	e24bd004 	sub	sp, fp, #4
    8798:	e8bd8800 	pop	{fp, pc}
    879c:	0000945c 	andeq	r9, r0, ip, asr r4

000087a0 <_Z4itoajPcj>:
_Z4itoajPcj():
/home/schenkj/os2022/sp/sources/stdlib/src/stdstring.cpp:9
{
    const char CharConvArr[] = "0123456789ABCDEF";
}

void itoa(unsigned int input, char* output, unsigned int base)
{
    87a0:	e92d4800 	push	{fp, lr}
    87a4:	e28db004 	add	fp, sp, #4
    87a8:	e24dd020 	sub	sp, sp, #32
    87ac:	e50b0018 	str	r0, [fp, #-24]	; 0xffffffe8
    87b0:	e50b101c 	str	r1, [fp, #-28]	; 0xffffffe4
    87b4:	e50b2020 	str	r2, [fp, #-32]	; 0xffffffe0
/home/schenkj/os2022/sp/sources/stdlib/src/stdstring.cpp:10
	int i = 0;
    87b8:	e3a03000 	mov	r3, #0
    87bc:	e50b3008 	str	r3, [fp, #-8]
/home/schenkj/os2022/sp/sources/stdlib/src/stdstring.cpp:12

	while (input > 0)
    87c0:	e51b3018 	ldr	r3, [fp, #-24]	; 0xffffffe8
    87c4:	e3530000 	cmp	r3, #0
    87c8:	0a000014 	beq	8820 <_Z4itoajPcj+0x80>
/home/schenkj/os2022/sp/sources/stdlib/src/stdstring.cpp:14
	{
		output[i] = CharConvArr[input % base];
    87cc:	e51b3018 	ldr	r3, [fp, #-24]	; 0xffffffe8
    87d0:	e51b1020 	ldr	r1, [fp, #-32]	; 0xffffffe0
    87d4:	e1a00003 	mov	r0, r3
    87d8:	eb0002c6 	bl	92f8 <__aeabi_uidivmod>
    87dc:	e1a03001 	mov	r3, r1
    87e0:	e1a01003 	mov	r1, r3
    87e4:	e51b3008 	ldr	r3, [fp, #-8]
    87e8:	e51b201c 	ldr	r2, [fp, #-28]	; 0xffffffe4
    87ec:	e0823003 	add	r3, r2, r3
    87f0:	e59f2118 	ldr	r2, [pc, #280]	; 8910 <_Z4itoajPcj+0x170>
    87f4:	e7d22001 	ldrb	r2, [r2, r1]
    87f8:	e5c32000 	strb	r2, [r3]
/home/schenkj/os2022/sp/sources/stdlib/src/stdstring.cpp:15
		input /= base;
    87fc:	e51b1020 	ldr	r1, [fp, #-32]	; 0xffffffe0
    8800:	e51b0018 	ldr	r0, [fp, #-24]	; 0xffffffe8
    8804:	eb000240 	bl	910c <__udivsi3>
    8808:	e1a03000 	mov	r3, r0
    880c:	e50b3018 	str	r3, [fp, #-24]	; 0xffffffe8
/home/schenkj/os2022/sp/sources/stdlib/src/stdstring.cpp:16
		i++;
    8810:	e51b3008 	ldr	r3, [fp, #-8]
    8814:	e2833001 	add	r3, r3, #1
    8818:	e50b3008 	str	r3, [fp, #-8]
/home/schenkj/os2022/sp/sources/stdlib/src/stdstring.cpp:12
	while (input > 0)
    881c:	eaffffe7 	b	87c0 <_Z4itoajPcj+0x20>
/home/schenkj/os2022/sp/sources/stdlib/src/stdstring.cpp:19
	}

    if (i == 0)
    8820:	e51b3008 	ldr	r3, [fp, #-8]
    8824:	e3530000 	cmp	r3, #0
    8828:	1a000007 	bne	884c <_Z4itoajPcj+0xac>
/home/schenkj/os2022/sp/sources/stdlib/src/stdstring.cpp:21
    {
        output[i] = CharConvArr[0];
    882c:	e51b3008 	ldr	r3, [fp, #-8]
    8830:	e51b201c 	ldr	r2, [fp, #-28]	; 0xffffffe4
    8834:	e0823003 	add	r3, r2, r3
    8838:	e3a02030 	mov	r2, #48	; 0x30
    883c:	e5c32000 	strb	r2, [r3]
/home/schenkj/os2022/sp/sources/stdlib/src/stdstring.cpp:22
        i++;
    8840:	e51b3008 	ldr	r3, [fp, #-8]
    8844:	e2833001 	add	r3, r3, #1
    8848:	e50b3008 	str	r3, [fp, #-8]
/home/schenkj/os2022/sp/sources/stdlib/src/stdstring.cpp:25
    }

	output[i] = '\0';
    884c:	e51b3008 	ldr	r3, [fp, #-8]
    8850:	e51b201c 	ldr	r2, [fp, #-28]	; 0xffffffe4
    8854:	e0823003 	add	r3, r2, r3
    8858:	e3a02000 	mov	r2, #0
    885c:	e5c32000 	strb	r2, [r3]
/home/schenkj/os2022/sp/sources/stdlib/src/stdstring.cpp:26
	i--;
    8860:	e51b3008 	ldr	r3, [fp, #-8]
    8864:	e2433001 	sub	r3, r3, #1
    8868:	e50b3008 	str	r3, [fp, #-8]
/home/schenkj/os2022/sp/sources/stdlib/src/stdstring.cpp:28

	for (int j = 0; j <= i/2; j++)
    886c:	e3a03000 	mov	r3, #0
    8870:	e50b300c 	str	r3, [fp, #-12]
/home/schenkj/os2022/sp/sources/stdlib/src/stdstring.cpp:28 (discriminator 3)
    8874:	e51b3008 	ldr	r3, [fp, #-8]
    8878:	e1a02fa3 	lsr	r2, r3, #31
    887c:	e0823003 	add	r3, r2, r3
    8880:	e1a030c3 	asr	r3, r3, #1
    8884:	e1a02003 	mov	r2, r3
    8888:	e51b300c 	ldr	r3, [fp, #-12]
    888c:	e1530002 	cmp	r3, r2
    8890:	ca00001b 	bgt	8904 <_Z4itoajPcj+0x164>
/home/schenkj/os2022/sp/sources/stdlib/src/stdstring.cpp:30 (discriminator 2)
	{
		char c = output[i - j];
    8894:	e51b2008 	ldr	r2, [fp, #-8]
    8898:	e51b300c 	ldr	r3, [fp, #-12]
    889c:	e0423003 	sub	r3, r2, r3
    88a0:	e1a02003 	mov	r2, r3
    88a4:	e51b301c 	ldr	r3, [fp, #-28]	; 0xffffffe4
    88a8:	e0833002 	add	r3, r3, r2
    88ac:	e5d33000 	ldrb	r3, [r3]
    88b0:	e54b300d 	strb	r3, [fp, #-13]
/home/schenkj/os2022/sp/sources/stdlib/src/stdstring.cpp:31 (discriminator 2)
		output[i - j] = output[j];
    88b4:	e51b300c 	ldr	r3, [fp, #-12]
    88b8:	e51b201c 	ldr	r2, [fp, #-28]	; 0xffffffe4
    88bc:	e0822003 	add	r2, r2, r3
    88c0:	e51b1008 	ldr	r1, [fp, #-8]
    88c4:	e51b300c 	ldr	r3, [fp, #-12]
    88c8:	e0413003 	sub	r3, r1, r3
    88cc:	e1a01003 	mov	r1, r3
    88d0:	e51b301c 	ldr	r3, [fp, #-28]	; 0xffffffe4
    88d4:	e0833001 	add	r3, r3, r1
    88d8:	e5d22000 	ldrb	r2, [r2]
    88dc:	e5c32000 	strb	r2, [r3]
/home/schenkj/os2022/sp/sources/stdlib/src/stdstring.cpp:32 (discriminator 2)
		output[j] = c;
    88e0:	e51b300c 	ldr	r3, [fp, #-12]
    88e4:	e51b201c 	ldr	r2, [fp, #-28]	; 0xffffffe4
    88e8:	e0823003 	add	r3, r2, r3
    88ec:	e55b200d 	ldrb	r2, [fp, #-13]
    88f0:	e5c32000 	strb	r2, [r3]
/home/schenkj/os2022/sp/sources/stdlib/src/stdstring.cpp:28 (discriminator 2)
	for (int j = 0; j <= i/2; j++)
    88f4:	e51b300c 	ldr	r3, [fp, #-12]
    88f8:	e2833001 	add	r3, r3, #1
    88fc:	e50b300c 	str	r3, [fp, #-12]
    8900:	eaffffdb 	b	8874 <_Z4itoajPcj+0xd4>
/home/schenkj/os2022/sp/sources/stdlib/src/stdstring.cpp:34
	}
}
    8904:	e320f000 	nop	{0}
    8908:	e24bd004 	sub	sp, fp, #4
    890c:	e8bd8800 	pop	{fp, pc}
    8910:	00009468 	andeq	r9, r0, r8, ror #8

00008914 <_Z4atoiPKc>:
_Z4atoiPKc():
/home/schenkj/os2022/sp/sources/stdlib/src/stdstring.cpp:37

int atoi(const char* input)
{
    8914:	e52db004 	push	{fp}		; (str fp, [sp, #-4]!)
    8918:	e28db000 	add	fp, sp, #0
    891c:	e24dd014 	sub	sp, sp, #20
    8920:	e50b0010 	str	r0, [fp, #-16]
/home/schenkj/os2022/sp/sources/stdlib/src/stdstring.cpp:38
	int output = 0;
    8924:	e3a03000 	mov	r3, #0
    8928:	e50b3008 	str	r3, [fp, #-8]
/home/schenkj/os2022/sp/sources/stdlib/src/stdstring.cpp:40

	while (*input != '\0')
    892c:	e51b3010 	ldr	r3, [fp, #-16]
    8930:	e5d33000 	ldrb	r3, [r3]
    8934:	e3530000 	cmp	r3, #0
    8938:	0a000017 	beq	899c <_Z4atoiPKc+0x88>
/home/schenkj/os2022/sp/sources/stdlib/src/stdstring.cpp:42
	{
		output *= 10;
    893c:	e51b2008 	ldr	r2, [fp, #-8]
    8940:	e1a03002 	mov	r3, r2
    8944:	e1a03103 	lsl	r3, r3, #2
    8948:	e0833002 	add	r3, r3, r2
    894c:	e1a03083 	lsl	r3, r3, #1
    8950:	e50b3008 	str	r3, [fp, #-8]
/home/schenkj/os2022/sp/sources/stdlib/src/stdstring.cpp:43
		if (*input > '9' || *input < '0')
    8954:	e51b3010 	ldr	r3, [fp, #-16]
    8958:	e5d33000 	ldrb	r3, [r3]
    895c:	e3530039 	cmp	r3, #57	; 0x39
    8960:	8a00000d 	bhi	899c <_Z4atoiPKc+0x88>
/home/schenkj/os2022/sp/sources/stdlib/src/stdstring.cpp:43 (discriminator 1)
    8964:	e51b3010 	ldr	r3, [fp, #-16]
    8968:	e5d33000 	ldrb	r3, [r3]
    896c:	e353002f 	cmp	r3, #47	; 0x2f
    8970:	9a000009 	bls	899c <_Z4atoiPKc+0x88>
/home/schenkj/os2022/sp/sources/stdlib/src/stdstring.cpp:46
			break;

		output += *input - '0';
    8974:	e51b3010 	ldr	r3, [fp, #-16]
    8978:	e5d33000 	ldrb	r3, [r3]
    897c:	e2433030 	sub	r3, r3, #48	; 0x30
    8980:	e51b2008 	ldr	r2, [fp, #-8]
    8984:	e0823003 	add	r3, r2, r3
    8988:	e50b3008 	str	r3, [fp, #-8]
/home/schenkj/os2022/sp/sources/stdlib/src/stdstring.cpp:48

		input++;
    898c:	e51b3010 	ldr	r3, [fp, #-16]
    8990:	e2833001 	add	r3, r3, #1
    8994:	e50b3010 	str	r3, [fp, #-16]
/home/schenkj/os2022/sp/sources/stdlib/src/stdstring.cpp:40
	while (*input != '\0')
    8998:	eaffffe3 	b	892c <_Z4atoiPKc+0x18>
/home/schenkj/os2022/sp/sources/stdlib/src/stdstring.cpp:51
	}

	return output;
    899c:	e51b3008 	ldr	r3, [fp, #-8]
/home/schenkj/os2022/sp/sources/stdlib/src/stdstring.cpp:52
}
    89a0:	e1a00003 	mov	r0, r3
    89a4:	e28bd000 	add	sp, fp, #0
    89a8:	e49db004 	pop	{fp}		; (ldr fp, [sp], #4)
    89ac:	e12fff1e 	bx	lr

000089b0 <_Z7strncpyPcPKci>:
_Z7strncpyPcPKci():
/home/schenkj/os2022/sp/sources/stdlib/src/stdstring.cpp:55

char* strncpy(char* dest, const char *src, int num)
{
    89b0:	e52db004 	push	{fp}		; (str fp, [sp, #-4]!)
    89b4:	e28db000 	add	fp, sp, #0
    89b8:	e24dd01c 	sub	sp, sp, #28
    89bc:	e50b0010 	str	r0, [fp, #-16]
    89c0:	e50b1014 	str	r1, [fp, #-20]	; 0xffffffec
    89c4:	e50b2018 	str	r2, [fp, #-24]	; 0xffffffe8
/home/schenkj/os2022/sp/sources/stdlib/src/stdstring.cpp:58
	int i;

	for (i = 0; i < num && src[i] != '\0'; i++)
    89c8:	e3a03000 	mov	r3, #0
    89cc:	e50b3008 	str	r3, [fp, #-8]
/home/schenkj/os2022/sp/sources/stdlib/src/stdstring.cpp:58 (discriminator 4)
    89d0:	e51b2008 	ldr	r2, [fp, #-8]
    89d4:	e51b3018 	ldr	r3, [fp, #-24]	; 0xffffffe8
    89d8:	e1520003 	cmp	r2, r3
    89dc:	aa000011 	bge	8a28 <_Z7strncpyPcPKci+0x78>
/home/schenkj/os2022/sp/sources/stdlib/src/stdstring.cpp:58 (discriminator 2)
    89e0:	e51b3008 	ldr	r3, [fp, #-8]
    89e4:	e51b2014 	ldr	r2, [fp, #-20]	; 0xffffffec
    89e8:	e0823003 	add	r3, r2, r3
    89ec:	e5d33000 	ldrb	r3, [r3]
    89f0:	e3530000 	cmp	r3, #0
    89f4:	0a00000b 	beq	8a28 <_Z7strncpyPcPKci+0x78>
/home/schenkj/os2022/sp/sources/stdlib/src/stdstring.cpp:59 (discriminator 3)
		dest[i] = src[i];
    89f8:	e51b3008 	ldr	r3, [fp, #-8]
    89fc:	e51b2014 	ldr	r2, [fp, #-20]	; 0xffffffec
    8a00:	e0822003 	add	r2, r2, r3
    8a04:	e51b3008 	ldr	r3, [fp, #-8]
    8a08:	e51b1010 	ldr	r1, [fp, #-16]
    8a0c:	e0813003 	add	r3, r1, r3
    8a10:	e5d22000 	ldrb	r2, [r2]
    8a14:	e5c32000 	strb	r2, [r3]
/home/schenkj/os2022/sp/sources/stdlib/src/stdstring.cpp:58 (discriminator 3)
	for (i = 0; i < num && src[i] != '\0'; i++)
    8a18:	e51b3008 	ldr	r3, [fp, #-8]
    8a1c:	e2833001 	add	r3, r3, #1
    8a20:	e50b3008 	str	r3, [fp, #-8]
    8a24:	eaffffe9 	b	89d0 <_Z7strncpyPcPKci+0x20>
/home/schenkj/os2022/sp/sources/stdlib/src/stdstring.cpp:60 (discriminator 2)
	for (; i < num; i++)
    8a28:	e51b2008 	ldr	r2, [fp, #-8]
    8a2c:	e51b3018 	ldr	r3, [fp, #-24]	; 0xffffffe8
    8a30:	e1520003 	cmp	r2, r3
    8a34:	aa000008 	bge	8a5c <_Z7strncpyPcPKci+0xac>
/home/schenkj/os2022/sp/sources/stdlib/src/stdstring.cpp:61 (discriminator 1)
		dest[i] = '\0';
    8a38:	e51b3008 	ldr	r3, [fp, #-8]
    8a3c:	e51b2010 	ldr	r2, [fp, #-16]
    8a40:	e0823003 	add	r3, r2, r3
    8a44:	e3a02000 	mov	r2, #0
    8a48:	e5c32000 	strb	r2, [r3]
/home/schenkj/os2022/sp/sources/stdlib/src/stdstring.cpp:60 (discriminator 1)
	for (; i < num; i++)
    8a4c:	e51b3008 	ldr	r3, [fp, #-8]
    8a50:	e2833001 	add	r3, r3, #1
    8a54:	e50b3008 	str	r3, [fp, #-8]
    8a58:	eafffff2 	b	8a28 <_Z7strncpyPcPKci+0x78>
/home/schenkj/os2022/sp/sources/stdlib/src/stdstring.cpp:63

   return dest;
    8a5c:	e51b3010 	ldr	r3, [fp, #-16]
/home/schenkj/os2022/sp/sources/stdlib/src/stdstring.cpp:64
}
    8a60:	e1a00003 	mov	r0, r3
    8a64:	e28bd000 	add	sp, fp, #0
    8a68:	e49db004 	pop	{fp}		; (ldr fp, [sp], #4)
    8a6c:	e12fff1e 	bx	lr

00008a70 <_Z7strncmpPKcS0_i>:
_Z7strncmpPKcS0_i():
/home/schenkj/os2022/sp/sources/stdlib/src/stdstring.cpp:67

int strncmp(const char *s1, const char *s2, int num)
{
    8a70:	e52db004 	push	{fp}		; (str fp, [sp, #-4]!)
    8a74:	e28db000 	add	fp, sp, #0
    8a78:	e24dd01c 	sub	sp, sp, #28
    8a7c:	e50b0010 	str	r0, [fp, #-16]
    8a80:	e50b1014 	str	r1, [fp, #-20]	; 0xffffffec
    8a84:	e50b2018 	str	r2, [fp, #-24]	; 0xffffffe8
/home/schenkj/os2022/sp/sources/stdlib/src/stdstring.cpp:69
	unsigned char u1, u2;
  	while (num-- > 0)
    8a88:	e51b3018 	ldr	r3, [fp, #-24]	; 0xffffffe8
    8a8c:	e2432001 	sub	r2, r3, #1
    8a90:	e50b2018 	str	r2, [fp, #-24]	; 0xffffffe8
    8a94:	e3530000 	cmp	r3, #0
    8a98:	c3a03001 	movgt	r3, #1
    8a9c:	d3a03000 	movle	r3, #0
    8aa0:	e6ef3073 	uxtb	r3, r3
    8aa4:	e3530000 	cmp	r3, #0
    8aa8:	0a000016 	beq	8b08 <_Z7strncmpPKcS0_i+0x98>
/home/schenkj/os2022/sp/sources/stdlib/src/stdstring.cpp:71
    {
      	u1 = (unsigned char) *s1++;
    8aac:	e51b3010 	ldr	r3, [fp, #-16]
    8ab0:	e2832001 	add	r2, r3, #1
    8ab4:	e50b2010 	str	r2, [fp, #-16]
    8ab8:	e5d33000 	ldrb	r3, [r3]
    8abc:	e54b3005 	strb	r3, [fp, #-5]
/home/schenkj/os2022/sp/sources/stdlib/src/stdstring.cpp:72
     	u2 = (unsigned char) *s2++;
    8ac0:	e51b3014 	ldr	r3, [fp, #-20]	; 0xffffffec
    8ac4:	e2832001 	add	r2, r3, #1
    8ac8:	e50b2014 	str	r2, [fp, #-20]	; 0xffffffec
    8acc:	e5d33000 	ldrb	r3, [r3]
    8ad0:	e54b3006 	strb	r3, [fp, #-6]
/home/schenkj/os2022/sp/sources/stdlib/src/stdstring.cpp:73
      	if (u1 != u2)
    8ad4:	e55b2005 	ldrb	r2, [fp, #-5]
    8ad8:	e55b3006 	ldrb	r3, [fp, #-6]
    8adc:	e1520003 	cmp	r2, r3
    8ae0:	0a000003 	beq	8af4 <_Z7strncmpPKcS0_i+0x84>
/home/schenkj/os2022/sp/sources/stdlib/src/stdstring.cpp:74
        	return u1 - u2;
    8ae4:	e55b2005 	ldrb	r2, [fp, #-5]
    8ae8:	e55b3006 	ldrb	r3, [fp, #-6]
    8aec:	e0423003 	sub	r3, r2, r3
    8af0:	ea000005 	b	8b0c <_Z7strncmpPKcS0_i+0x9c>
/home/schenkj/os2022/sp/sources/stdlib/src/stdstring.cpp:75
      	if (u1 == '\0')
    8af4:	e55b3005 	ldrb	r3, [fp, #-5]
    8af8:	e3530000 	cmp	r3, #0
    8afc:	1affffe1 	bne	8a88 <_Z7strncmpPKcS0_i+0x18>
/home/schenkj/os2022/sp/sources/stdlib/src/stdstring.cpp:76
        	return 0;
    8b00:	e3a03000 	mov	r3, #0
    8b04:	ea000000 	b	8b0c <_Z7strncmpPKcS0_i+0x9c>
/home/schenkj/os2022/sp/sources/stdlib/src/stdstring.cpp:79
    }

  	return 0;
    8b08:	e3a03000 	mov	r3, #0
/home/schenkj/os2022/sp/sources/stdlib/src/stdstring.cpp:80
}
    8b0c:	e1a00003 	mov	r0, r3
    8b10:	e28bd000 	add	sp, fp, #0
    8b14:	e49db004 	pop	{fp}		; (ldr fp, [sp], #4)
    8b18:	e12fff1e 	bx	lr

00008b1c <_Z6strlenPKc>:
_Z6strlenPKc():
/home/schenkj/os2022/sp/sources/stdlib/src/stdstring.cpp:83

int strlen(const char* s)
{
    8b1c:	e52db004 	push	{fp}		; (str fp, [sp, #-4]!)
    8b20:	e28db000 	add	fp, sp, #0
    8b24:	e24dd014 	sub	sp, sp, #20
    8b28:	e50b0010 	str	r0, [fp, #-16]
/home/schenkj/os2022/sp/sources/stdlib/src/stdstring.cpp:84
	int i = 0;
    8b2c:	e3a03000 	mov	r3, #0
    8b30:	e50b3008 	str	r3, [fp, #-8]
/home/schenkj/os2022/sp/sources/stdlib/src/stdstring.cpp:86

	while (s[i] != '\0')
    8b34:	e51b3008 	ldr	r3, [fp, #-8]
    8b38:	e51b2010 	ldr	r2, [fp, #-16]
    8b3c:	e0823003 	add	r3, r2, r3
    8b40:	e5d33000 	ldrb	r3, [r3]
    8b44:	e3530000 	cmp	r3, #0
    8b48:	0a000003 	beq	8b5c <_Z6strlenPKc+0x40>
/home/schenkj/os2022/sp/sources/stdlib/src/stdstring.cpp:87
		i++;
    8b4c:	e51b3008 	ldr	r3, [fp, #-8]
    8b50:	e2833001 	add	r3, r3, #1
    8b54:	e50b3008 	str	r3, [fp, #-8]
/home/schenkj/os2022/sp/sources/stdlib/src/stdstring.cpp:86
	while (s[i] != '\0')
    8b58:	eafffff5 	b	8b34 <_Z6strlenPKc+0x18>
/home/schenkj/os2022/sp/sources/stdlib/src/stdstring.cpp:89

	return i;
    8b5c:	e51b3008 	ldr	r3, [fp, #-8]
/home/schenkj/os2022/sp/sources/stdlib/src/stdstring.cpp:90
}
    8b60:	e1a00003 	mov	r0, r3
    8b64:	e28bd000 	add	sp, fp, #0
    8b68:	e49db004 	pop	{fp}		; (ldr fp, [sp], #4)
    8b6c:	e12fff1e 	bx	lr

00008b70 <_Z5bzeroPvi>:
_Z5bzeroPvi():
/home/schenkj/os2022/sp/sources/stdlib/src/stdstring.cpp:93

void bzero(void* memory, int length)
{
    8b70:	e52db004 	push	{fp}		; (str fp, [sp, #-4]!)
    8b74:	e28db000 	add	fp, sp, #0
    8b78:	e24dd014 	sub	sp, sp, #20
    8b7c:	e50b0010 	str	r0, [fp, #-16]
    8b80:	e50b1014 	str	r1, [fp, #-20]	; 0xffffffec
/home/schenkj/os2022/sp/sources/stdlib/src/stdstring.cpp:94
	char* mem = reinterpret_cast<char*>(memory);
    8b84:	e51b3010 	ldr	r3, [fp, #-16]
    8b88:	e50b300c 	str	r3, [fp, #-12]
/home/schenkj/os2022/sp/sources/stdlib/src/stdstring.cpp:96

	for (int i = 0; i < length; i++)
    8b8c:	e3a03000 	mov	r3, #0
    8b90:	e50b3008 	str	r3, [fp, #-8]
/home/schenkj/os2022/sp/sources/stdlib/src/stdstring.cpp:96 (discriminator 3)
    8b94:	e51b2008 	ldr	r2, [fp, #-8]
    8b98:	e51b3014 	ldr	r3, [fp, #-20]	; 0xffffffec
    8b9c:	e1520003 	cmp	r2, r3
    8ba0:	aa000008 	bge	8bc8 <_Z5bzeroPvi+0x58>
/home/schenkj/os2022/sp/sources/stdlib/src/stdstring.cpp:97 (discriminator 2)
		mem[i] = 0;
    8ba4:	e51b3008 	ldr	r3, [fp, #-8]
    8ba8:	e51b200c 	ldr	r2, [fp, #-12]
    8bac:	e0823003 	add	r3, r2, r3
    8bb0:	e3a02000 	mov	r2, #0
    8bb4:	e5c32000 	strb	r2, [r3]
/home/schenkj/os2022/sp/sources/stdlib/src/stdstring.cpp:96 (discriminator 2)
	for (int i = 0; i < length; i++)
    8bb8:	e51b3008 	ldr	r3, [fp, #-8]
    8bbc:	e2833001 	add	r3, r3, #1
    8bc0:	e50b3008 	str	r3, [fp, #-8]
    8bc4:	eafffff2 	b	8b94 <_Z5bzeroPvi+0x24>
/home/schenkj/os2022/sp/sources/stdlib/src/stdstring.cpp:98
}
    8bc8:	e320f000 	nop	{0}
    8bcc:	e28bd000 	add	sp, fp, #0
    8bd0:	e49db004 	pop	{fp}		; (ldr fp, [sp], #4)
    8bd4:	e12fff1e 	bx	lr

00008bd8 <_Z6memcpyPKvPvi>:
_Z6memcpyPKvPvi():
/home/schenkj/os2022/sp/sources/stdlib/src/stdstring.cpp:101

void memcpy(const void* src, void* dst, int num)
{
    8bd8:	e52db004 	push	{fp}		; (str fp, [sp, #-4]!)
    8bdc:	e28db000 	add	fp, sp, #0
    8be0:	e24dd024 	sub	sp, sp, #36	; 0x24
    8be4:	e50b0018 	str	r0, [fp, #-24]	; 0xffffffe8
    8be8:	e50b101c 	str	r1, [fp, #-28]	; 0xffffffe4
    8bec:	e50b2020 	str	r2, [fp, #-32]	; 0xffffffe0
/home/schenkj/os2022/sp/sources/stdlib/src/stdstring.cpp:102
	const char* memsrc = reinterpret_cast<const char*>(src);
    8bf0:	e51b3018 	ldr	r3, [fp, #-24]	; 0xffffffe8
    8bf4:	e50b300c 	str	r3, [fp, #-12]
/home/schenkj/os2022/sp/sources/stdlib/src/stdstring.cpp:103
	char* memdst = reinterpret_cast<char*>(dst);
    8bf8:	e51b301c 	ldr	r3, [fp, #-28]	; 0xffffffe4
    8bfc:	e50b3010 	str	r3, [fp, #-16]
/home/schenkj/os2022/sp/sources/stdlib/src/stdstring.cpp:105

	for (int i = 0; i < num; i++)
    8c00:	e3a03000 	mov	r3, #0
    8c04:	e50b3008 	str	r3, [fp, #-8]
/home/schenkj/os2022/sp/sources/stdlib/src/stdstring.cpp:105 (discriminator 3)
    8c08:	e51b2008 	ldr	r2, [fp, #-8]
    8c0c:	e51b3020 	ldr	r3, [fp, #-32]	; 0xffffffe0
    8c10:	e1520003 	cmp	r2, r3
    8c14:	aa00000b 	bge	8c48 <_Z6memcpyPKvPvi+0x70>
/home/schenkj/os2022/sp/sources/stdlib/src/stdstring.cpp:106 (discriminator 2)
		memdst[i] = memsrc[i];
    8c18:	e51b3008 	ldr	r3, [fp, #-8]
    8c1c:	e51b200c 	ldr	r2, [fp, #-12]
    8c20:	e0822003 	add	r2, r2, r3
    8c24:	e51b3008 	ldr	r3, [fp, #-8]
    8c28:	e51b1010 	ldr	r1, [fp, #-16]
    8c2c:	e0813003 	add	r3, r1, r3
    8c30:	e5d22000 	ldrb	r2, [r2]
    8c34:	e5c32000 	strb	r2, [r3]
/home/schenkj/os2022/sp/sources/stdlib/src/stdstring.cpp:105 (discriminator 2)
	for (int i = 0; i < num; i++)
    8c38:	e51b3008 	ldr	r3, [fp, #-8]
    8c3c:	e2833001 	add	r3, r3, #1
    8c40:	e50b3008 	str	r3, [fp, #-8]
    8c44:	eaffffef 	b	8c08 <_Z6memcpyPKvPvi+0x30>
/home/schenkj/os2022/sp/sources/stdlib/src/stdstring.cpp:107
}
    8c48:	e320f000 	nop	{0}
    8c4c:	e28bd000 	add	sp, fp, #0
    8c50:	e49db004 	pop	{fp}		; (ldr fp, [sp], #4)
    8c54:	e12fff1e 	bx	lr

00008c58 <_ZN13COLED_DisplayC1EPKc>:
_ZN13COLED_DisplayC2EPKc():
/home/schenkj/os2022/sp/sources/stdutils/src/oled.cpp:10
#include <drivers/bridges/display_protocol.h>

// tento soubor includujeme jen odtud
#include "oled_font.h"

COLED_Display::COLED_Display(const char* path)
    8c58:	e92d4800 	push	{fp, lr}
    8c5c:	e28db004 	add	fp, sp, #4
    8c60:	e24dd008 	sub	sp, sp, #8
    8c64:	e50b0008 	str	r0, [fp, #-8]
    8c68:	e50b100c 	str	r1, [fp, #-12]
/home/schenkj/os2022/sp/sources/stdutils/src/oled.cpp:11
    : mHandle{ open(path, NFile_Open_Mode::Write_Only) }, mOpened(false)
    8c6c:	e3a01001 	mov	r1, #1
    8c70:	e51b000c 	ldr	r0, [fp, #-12]
    8c74:	ebfffdcf 	bl	83b8 <_Z4openPKc15NFile_Open_Mode>
    8c78:	e1a02000 	mov	r2, r0
    8c7c:	e51b3008 	ldr	r3, [fp, #-8]
    8c80:	e5832000 	str	r2, [r3]
    8c84:	e51b3008 	ldr	r3, [fp, #-8]
    8c88:	e3a02000 	mov	r2, #0
    8c8c:	e5c32004 	strb	r2, [r3, #4]
/home/schenkj/os2022/sp/sources/stdutils/src/oled.cpp:14
{
    // nastavime priznak dle toho, co vrati open
    mOpened = (mHandle != static_cast<uint32_t>(-1));
    8c90:	e51b3008 	ldr	r3, [fp, #-8]
    8c94:	e5933000 	ldr	r3, [r3]
    8c98:	e3730001 	cmn	r3, #1
    8c9c:	13a03001 	movne	r3, #1
    8ca0:	03a03000 	moveq	r3, #0
    8ca4:	e6ef2073 	uxtb	r2, r3
    8ca8:	e51b3008 	ldr	r3, [fp, #-8]
    8cac:	e5c32004 	strb	r2, [r3, #4]
/home/schenkj/os2022/sp/sources/stdutils/src/oled.cpp:15
}
    8cb0:	e51b3008 	ldr	r3, [fp, #-8]
    8cb4:	e1a00003 	mov	r0, r3
    8cb8:	e24bd004 	sub	sp, fp, #4
    8cbc:	e8bd8800 	pop	{fp, pc}

00008cc0 <_ZN13COLED_DisplayD1Ev>:
_ZN13COLED_DisplayD2Ev():
/home/schenkj/os2022/sp/sources/stdutils/src/oled.cpp:17

COLED_Display::~COLED_Display()
    8cc0:	e92d4800 	push	{fp, lr}
    8cc4:	e28db004 	add	fp, sp, #4
    8cc8:	e24dd008 	sub	sp, sp, #8
    8ccc:	e50b0008 	str	r0, [fp, #-8]
/home/schenkj/os2022/sp/sources/stdutils/src/oled.cpp:20
{
    // pokud byl displej otevreny, zavreme
    if (mOpened)
    8cd0:	e51b3008 	ldr	r3, [fp, #-8]
    8cd4:	e5d33004 	ldrb	r3, [r3, #4]
    8cd8:	e3530000 	cmp	r3, #0
    8cdc:	0a000006 	beq	8cfc <_ZN13COLED_DisplayD1Ev+0x3c>
/home/schenkj/os2022/sp/sources/stdutils/src/oled.cpp:22
    {
        mOpened = false;
    8ce0:	e51b3008 	ldr	r3, [fp, #-8]
    8ce4:	e3a02000 	mov	r2, #0
    8ce8:	e5c32004 	strb	r2, [r3, #4]
/home/schenkj/os2022/sp/sources/stdutils/src/oled.cpp:23
        close(mHandle);
    8cec:	e51b3008 	ldr	r3, [fp, #-8]
    8cf0:	e5933000 	ldr	r3, [r3]
    8cf4:	e1a00003 	mov	r0, r3
    8cf8:	ebfffde7 	bl	849c <_Z5closej>
/home/schenkj/os2022/sp/sources/stdutils/src/oled.cpp:25
    }
}
    8cfc:	e51b3008 	ldr	r3, [fp, #-8]
    8d00:	e1a00003 	mov	r0, r3
    8d04:	e24bd004 	sub	sp, fp, #4
    8d08:	e8bd8800 	pop	{fp, pc}

00008d0c <_ZNK13COLED_Display9Is_OpenedEv>:
_ZNK13COLED_Display9Is_OpenedEv():
/home/schenkj/os2022/sp/sources/stdutils/src/oled.cpp:28

bool COLED_Display::Is_Opened() const
{
    8d0c:	e52db004 	push	{fp}		; (str fp, [sp, #-4]!)
    8d10:	e28db000 	add	fp, sp, #0
    8d14:	e24dd00c 	sub	sp, sp, #12
    8d18:	e50b0008 	str	r0, [fp, #-8]
/home/schenkj/os2022/sp/sources/stdutils/src/oled.cpp:29
    return mOpened;
    8d1c:	e51b3008 	ldr	r3, [fp, #-8]
    8d20:	e5d33004 	ldrb	r3, [r3, #4]
/home/schenkj/os2022/sp/sources/stdutils/src/oled.cpp:30
}
    8d24:	e1a00003 	mov	r0, r3
    8d28:	e28bd000 	add	sp, fp, #0
    8d2c:	e49db004 	pop	{fp}		; (ldr fp, [sp], #4)
    8d30:	e12fff1e 	bx	lr

00008d34 <_ZN13COLED_Display5ClearEb>:
_ZN13COLED_Display5ClearEb():
/home/schenkj/os2022/sp/sources/stdutils/src/oled.cpp:33

void COLED_Display::Clear(bool clearSet)
{
    8d34:	e92d4800 	push	{fp, lr}
    8d38:	e28db004 	add	fp, sp, #4
    8d3c:	e24dd010 	sub	sp, sp, #16
    8d40:	e50b0010 	str	r0, [fp, #-16]
    8d44:	e1a03001 	mov	r3, r1
    8d48:	e54b3011 	strb	r3, [fp, #-17]	; 0xffffffef
/home/schenkj/os2022/sp/sources/stdutils/src/oled.cpp:34
    if (!mOpened)
    8d4c:	e51b3010 	ldr	r3, [fp, #-16]
    8d50:	e5d33004 	ldrb	r3, [r3, #4]
    8d54:	e2233001 	eor	r3, r3, #1
    8d58:	e6ef3073 	uxtb	r3, r3
    8d5c:	e3530000 	cmp	r3, #0
    8d60:	1a00000f 	bne	8da4 <_ZN13COLED_Display5ClearEb+0x70>
/home/schenkj/os2022/sp/sources/stdutils/src/oled.cpp:38
        return;

    TDisplay_Clear_Packet pkt;
	pkt.header.cmd = NDisplay_Command::Clear;
    8d64:	e3a03002 	mov	r3, #2
    8d68:	e54b3008 	strb	r3, [fp, #-8]
/home/schenkj/os2022/sp/sources/stdutils/src/oled.cpp:39
	pkt.clearSet = clearSet ? 1 : 0;
    8d6c:	e55b3011 	ldrb	r3, [fp, #-17]	; 0xffffffef
    8d70:	e3530000 	cmp	r3, #0
    8d74:	0a000001 	beq	8d80 <_ZN13COLED_Display5ClearEb+0x4c>
/home/schenkj/os2022/sp/sources/stdutils/src/oled.cpp:39 (discriminator 1)
    8d78:	e3a03001 	mov	r3, #1
    8d7c:	ea000000 	b	8d84 <_ZN13COLED_Display5ClearEb+0x50>
/home/schenkj/os2022/sp/sources/stdutils/src/oled.cpp:39 (discriminator 2)
    8d80:	e3a03000 	mov	r3, #0
/home/schenkj/os2022/sp/sources/stdutils/src/oled.cpp:39 (discriminator 4)
    8d84:	e54b3007 	strb	r3, [fp, #-7]
/home/schenkj/os2022/sp/sources/stdutils/src/oled.cpp:40 (discriminator 4)
	write(mHandle, reinterpret_cast<char*>(&pkt), sizeof(pkt));
    8d88:	e51b3010 	ldr	r3, [fp, #-16]
    8d8c:	e5933000 	ldr	r3, [r3]
    8d90:	e24b1008 	sub	r1, fp, #8
    8d94:	e3a02002 	mov	r2, #2
    8d98:	e1a00003 	mov	r0, r3
    8d9c:	ebfffdaa 	bl	844c <_Z5writejPKcj>
    8da0:	ea000000 	b	8da8 <_ZN13COLED_Display5ClearEb+0x74>
/home/schenkj/os2022/sp/sources/stdutils/src/oled.cpp:35
        return;
    8da4:	e320f000 	nop	{0}
/home/schenkj/os2022/sp/sources/stdutils/src/oled.cpp:41
}
    8da8:	e24bd004 	sub	sp, fp, #4
    8dac:	e8bd8800 	pop	{fp, pc}

00008db0 <_ZN13COLED_Display9Set_PixelEttb>:
_ZN13COLED_Display9Set_PixelEttb():
/home/schenkj/os2022/sp/sources/stdutils/src/oled.cpp:44

void COLED_Display::Set_Pixel(uint16_t x, uint16_t y, bool set)
{
    8db0:	e92d4800 	push	{fp, lr}
    8db4:	e28db004 	add	fp, sp, #4
    8db8:	e24dd018 	sub	sp, sp, #24
    8dbc:	e50b0010 	str	r0, [fp, #-16]
    8dc0:	e1a00001 	mov	r0, r1
    8dc4:	e1a01002 	mov	r1, r2
    8dc8:	e1a02003 	mov	r2, r3
    8dcc:	e1a03000 	mov	r3, r0
    8dd0:	e14b31b2 	strh	r3, [fp, #-18]	; 0xffffffee
    8dd4:	e1a03001 	mov	r3, r1
    8dd8:	e14b31b4 	strh	r3, [fp, #-20]	; 0xffffffec
    8ddc:	e1a03002 	mov	r3, r2
    8de0:	e54b3015 	strb	r3, [fp, #-21]	; 0xffffffeb
/home/schenkj/os2022/sp/sources/stdutils/src/oled.cpp:45
    if (!mOpened)
    8de4:	e51b3010 	ldr	r3, [fp, #-16]
    8de8:	e5d33004 	ldrb	r3, [r3, #4]
    8dec:	e2233001 	eor	r3, r3, #1
    8df0:	e6ef3073 	uxtb	r3, r3
    8df4:	e3530000 	cmp	r3, #0
    8df8:	1a000024 	bne	8e90 <_ZN13COLED_Display9Set_PixelEttb+0xe0>
/home/schenkj/os2022/sp/sources/stdutils/src/oled.cpp:50
        return;

    // nehospodarny zpusob, jak nastavit pixely, ale pro ted staci
    TDisplay_Draw_Pixel_Array_Packet pkt;
    pkt.header.cmd = NDisplay_Command::Draw_Pixel_Array;
    8dfc:	e3a03003 	mov	r3, #3
    8e00:	e54b300c 	strb	r3, [fp, #-12]
/home/schenkj/os2022/sp/sources/stdutils/src/oled.cpp:51
    pkt.count = 1;
    8e04:	e3a03000 	mov	r3, #0
    8e08:	e3833001 	orr	r3, r3, #1
    8e0c:	e54b300b 	strb	r3, [fp, #-11]
    8e10:	e3a03000 	mov	r3, #0
    8e14:	e54b300a 	strb	r3, [fp, #-10]
/home/schenkj/os2022/sp/sources/stdutils/src/oled.cpp:52
    pkt.first.x = x;
    8e18:	e55b3012 	ldrb	r3, [fp, #-18]	; 0xffffffee
    8e1c:	e3a02000 	mov	r2, #0
    8e20:	e1823003 	orr	r3, r2, r3
    8e24:	e54b3009 	strb	r3, [fp, #-9]
    8e28:	e55b3011 	ldrb	r3, [fp, #-17]	; 0xffffffef
    8e2c:	e3a02000 	mov	r2, #0
    8e30:	e1823003 	orr	r3, r2, r3
    8e34:	e54b3008 	strb	r3, [fp, #-8]
/home/schenkj/os2022/sp/sources/stdutils/src/oled.cpp:53
    pkt.first.y = y;
    8e38:	e55b3014 	ldrb	r3, [fp, #-20]	; 0xffffffec
    8e3c:	e3a02000 	mov	r2, #0
    8e40:	e1823003 	orr	r3, r2, r3
    8e44:	e54b3007 	strb	r3, [fp, #-7]
    8e48:	e55b3013 	ldrb	r3, [fp, #-19]	; 0xffffffed
    8e4c:	e3a02000 	mov	r2, #0
    8e50:	e1823003 	orr	r3, r2, r3
    8e54:	e54b3006 	strb	r3, [fp, #-6]
/home/schenkj/os2022/sp/sources/stdutils/src/oled.cpp:54
    pkt.first.set = set ? 1 : 0;
    8e58:	e55b3015 	ldrb	r3, [fp, #-21]	; 0xffffffeb
    8e5c:	e3530000 	cmp	r3, #0
    8e60:	0a000001 	beq	8e6c <_ZN13COLED_Display9Set_PixelEttb+0xbc>
/home/schenkj/os2022/sp/sources/stdutils/src/oled.cpp:54 (discriminator 1)
    8e64:	e3a03001 	mov	r3, #1
    8e68:	ea000000 	b	8e70 <_ZN13COLED_Display9Set_PixelEttb+0xc0>
/home/schenkj/os2022/sp/sources/stdutils/src/oled.cpp:54 (discriminator 2)
    8e6c:	e3a03000 	mov	r3, #0
/home/schenkj/os2022/sp/sources/stdutils/src/oled.cpp:54 (discriminator 4)
    8e70:	e54b3005 	strb	r3, [fp, #-5]
/home/schenkj/os2022/sp/sources/stdutils/src/oled.cpp:55 (discriminator 4)
    write(mHandle, reinterpret_cast<char*>(&pkt), sizeof(pkt));
    8e74:	e51b3010 	ldr	r3, [fp, #-16]
    8e78:	e5933000 	ldr	r3, [r3]
    8e7c:	e24b100c 	sub	r1, fp, #12
    8e80:	e3a02008 	mov	r2, #8
    8e84:	e1a00003 	mov	r0, r3
    8e88:	ebfffd6f 	bl	844c <_Z5writejPKcj>
    8e8c:	ea000000 	b	8e94 <_ZN13COLED_Display9Set_PixelEttb+0xe4>
/home/schenkj/os2022/sp/sources/stdutils/src/oled.cpp:46
        return;
    8e90:	e320f000 	nop	{0}
/home/schenkj/os2022/sp/sources/stdutils/src/oled.cpp:56
}
    8e94:	e24bd004 	sub	sp, fp, #4
    8e98:	e8bd8800 	pop	{fp, pc}

00008e9c <_ZN13COLED_Display8Put_CharEttc>:
_ZN13COLED_Display8Put_CharEttc():
/home/schenkj/os2022/sp/sources/stdutils/src/oled.cpp:59

void COLED_Display::Put_Char(uint16_t x, uint16_t y, char c)
{
    8e9c:	e92d4800 	push	{fp, lr}
    8ea0:	e28db004 	add	fp, sp, #4
    8ea4:	e24dd028 	sub	sp, sp, #40	; 0x28
    8ea8:	e50b0020 	str	r0, [fp, #-32]	; 0xffffffe0
    8eac:	e1a00001 	mov	r0, r1
    8eb0:	e1a01002 	mov	r1, r2
    8eb4:	e1a02003 	mov	r2, r3
    8eb8:	e1a03000 	mov	r3, r0
    8ebc:	e14b32b2 	strh	r3, [fp, #-34]	; 0xffffffde
    8ec0:	e1a03001 	mov	r3, r1
    8ec4:	e14b32b4 	strh	r3, [fp, #-36]	; 0xffffffdc
    8ec8:	e1a03002 	mov	r3, r2
    8ecc:	e54b3025 	strb	r3, [fp, #-37]	; 0xffffffdb
/home/schenkj/os2022/sp/sources/stdutils/src/oled.cpp:60
    if (!mOpened)
    8ed0:	e51b3020 	ldr	r3, [fp, #-32]	; 0xffffffe0
    8ed4:	e5d33004 	ldrb	r3, [r3, #4]
    8ed8:	e2233001 	eor	r3, r3, #1
    8edc:	e6ef3073 	uxtb	r3, r3
    8ee0:	e3530000 	cmp	r3, #0
    8ee4:	1a000040 	bne	8fec <_ZN13COLED_Display8Put_CharEttc+0x150>
/home/schenkj/os2022/sp/sources/stdutils/src/oled.cpp:64
        return;

    // umime jen nektere znaky
    if (c < OLED_Font::Char_Begin || c >= OLED_Font::Char_End)
    8ee8:	e55b3025 	ldrb	r3, [fp, #-37]	; 0xffffffdb
    8eec:	e353001f 	cmp	r3, #31
    8ef0:	9a00003f 	bls	8ff4 <_ZN13COLED_Display8Put_CharEttc+0x158>
/home/schenkj/os2022/sp/sources/stdutils/src/oled.cpp:64 (discriminator 1)
    8ef4:	e15b32d5 	ldrsb	r3, [fp, #-37]	; 0xffffffdb
    8ef8:	e3530000 	cmp	r3, #0
    8efc:	ba00003c 	blt	8ff4 <_ZN13COLED_Display8Put_CharEttc+0x158>
/home/schenkj/os2022/sp/sources/stdutils/src/oled.cpp:69
        return;

    char buf[sizeof(TDisplay_Pixels_To_Rect) + OLED_Font::Char_Width];

    TDisplay_Pixels_To_Rect* ptr = reinterpret_cast<TDisplay_Pixels_To_Rect*>(buf);
    8f00:	e24b301c 	sub	r3, fp, #28
    8f04:	e50b3008 	str	r3, [fp, #-8]
/home/schenkj/os2022/sp/sources/stdutils/src/oled.cpp:70
    ptr->header.cmd = NDisplay_Command::Draw_Pixel_Array_To_Rect;
    8f08:	e51b3008 	ldr	r3, [fp, #-8]
    8f0c:	e3a02004 	mov	r2, #4
    8f10:	e5c32000 	strb	r2, [r3]
/home/schenkj/os2022/sp/sources/stdutils/src/oled.cpp:71
    ptr->w = OLED_Font::Char_Width;
    8f14:	e51b3008 	ldr	r3, [fp, #-8]
    8f18:	e3a02000 	mov	r2, #0
    8f1c:	e3822006 	orr	r2, r2, #6
    8f20:	e5c32005 	strb	r2, [r3, #5]
    8f24:	e3a02000 	mov	r2, #0
    8f28:	e5c32006 	strb	r2, [r3, #6]
/home/schenkj/os2022/sp/sources/stdutils/src/oled.cpp:72
    ptr->h = OLED_Font::Char_Height;
    8f2c:	e51b3008 	ldr	r3, [fp, #-8]
    8f30:	e3a02000 	mov	r2, #0
    8f34:	e3822008 	orr	r2, r2, #8
    8f38:	e5c32007 	strb	r2, [r3, #7]
    8f3c:	e3a02000 	mov	r2, #0
    8f40:	e5c32008 	strb	r2, [r3, #8]
/home/schenkj/os2022/sp/sources/stdutils/src/oled.cpp:73
    ptr->x1 = x;
    8f44:	e51b3008 	ldr	r3, [fp, #-8]
    8f48:	e55b2022 	ldrb	r2, [fp, #-34]	; 0xffffffde
    8f4c:	e3a01000 	mov	r1, #0
    8f50:	e1812002 	orr	r2, r1, r2
    8f54:	e5c32001 	strb	r2, [r3, #1]
    8f58:	e55b2021 	ldrb	r2, [fp, #-33]	; 0xffffffdf
    8f5c:	e3a01000 	mov	r1, #0
    8f60:	e1812002 	orr	r2, r1, r2
    8f64:	e5c32002 	strb	r2, [r3, #2]
/home/schenkj/os2022/sp/sources/stdutils/src/oled.cpp:74
    ptr->y1 = y;
    8f68:	e51b3008 	ldr	r3, [fp, #-8]
    8f6c:	e55b2024 	ldrb	r2, [fp, #-36]	; 0xffffffdc
    8f70:	e3a01000 	mov	r1, #0
    8f74:	e1812002 	orr	r2, r1, r2
    8f78:	e5c32003 	strb	r2, [r3, #3]
    8f7c:	e55b2023 	ldrb	r2, [fp, #-35]	; 0xffffffdd
    8f80:	e3a01000 	mov	r1, #0
    8f84:	e1812002 	orr	r2, r1, r2
    8f88:	e5c32004 	strb	r2, [r3, #4]
/home/schenkj/os2022/sp/sources/stdutils/src/oled.cpp:75
    ptr->vflip = OLED_Font::Flip_Chars ? 1 : 0;
    8f8c:	e51b3008 	ldr	r3, [fp, #-8]
    8f90:	e3a02001 	mov	r2, #1
    8f94:	e5c32009 	strb	r2, [r3, #9]
/home/schenkj/os2022/sp/sources/stdutils/src/oled.cpp:77
    
    memcpy(&OLED_Font::OLED_Font_Default[OLED_Font::Char_Width * (((uint16_t)c) - OLED_Font::Char_Begin)], &ptr->first, OLED_Font::Char_Width);
    8f98:	e55b3025 	ldrb	r3, [fp, #-37]	; 0xffffffdb
    8f9c:	e2432020 	sub	r2, r3, #32
    8fa0:	e1a03002 	mov	r3, r2
    8fa4:	e1a03083 	lsl	r3, r3, #1
    8fa8:	e0833002 	add	r3, r3, r2
    8fac:	e1a03083 	lsl	r3, r3, #1
    8fb0:	e1a02003 	mov	r2, r3
    8fb4:	e59f3044 	ldr	r3, [pc, #68]	; 9000 <_ZN13COLED_Display8Put_CharEttc+0x164>
    8fb8:	e0820003 	add	r0, r2, r3
    8fbc:	e51b3008 	ldr	r3, [fp, #-8]
    8fc0:	e283300a 	add	r3, r3, #10
    8fc4:	e3a02006 	mov	r2, #6
    8fc8:	e1a01003 	mov	r1, r3
    8fcc:	ebffff01 	bl	8bd8 <_Z6memcpyPKvPvi>
/home/schenkj/os2022/sp/sources/stdutils/src/oled.cpp:79

    write(mHandle, buf, sizeof(buf));
    8fd0:	e51b3020 	ldr	r3, [fp, #-32]	; 0xffffffe0
    8fd4:	e5933000 	ldr	r3, [r3]
    8fd8:	e24b101c 	sub	r1, fp, #28
    8fdc:	e3a02011 	mov	r2, #17
    8fe0:	e1a00003 	mov	r0, r3
    8fe4:	ebfffd18 	bl	844c <_Z5writejPKcj>
    8fe8:	ea000002 	b	8ff8 <_ZN13COLED_Display8Put_CharEttc+0x15c>
/home/schenkj/os2022/sp/sources/stdutils/src/oled.cpp:61
        return;
    8fec:	e320f000 	nop	{0}
    8ff0:	ea000000 	b	8ff8 <_ZN13COLED_Display8Put_CharEttc+0x15c>
/home/schenkj/os2022/sp/sources/stdutils/src/oled.cpp:65
        return;
    8ff4:	e320f000 	nop	{0}
/home/schenkj/os2022/sp/sources/stdutils/src/oled.cpp:80
}
    8ff8:	e24bd004 	sub	sp, fp, #4
    8ffc:	e8bd8800 	pop	{fp, pc}
    9000:	000094e0 	andeq	r9, r0, r0, ror #9

00009004 <_ZN13COLED_Display4FlipEv>:
_ZN13COLED_Display4FlipEv():
/home/schenkj/os2022/sp/sources/stdutils/src/oled.cpp:83

void COLED_Display::Flip()
{
    9004:	e92d4800 	push	{fp, lr}
    9008:	e28db004 	add	fp, sp, #4
    900c:	e24dd010 	sub	sp, sp, #16
    9010:	e50b0010 	str	r0, [fp, #-16]
/home/schenkj/os2022/sp/sources/stdutils/src/oled.cpp:84
    if (!mOpened)
    9014:	e51b3010 	ldr	r3, [fp, #-16]
    9018:	e5d33004 	ldrb	r3, [r3, #4]
    901c:	e2233001 	eor	r3, r3, #1
    9020:	e6ef3073 	uxtb	r3, r3
    9024:	e3530000 	cmp	r3, #0
    9028:	1a000008 	bne	9050 <_ZN13COLED_Display4FlipEv+0x4c>
/home/schenkj/os2022/sp/sources/stdutils/src/oled.cpp:88
        return;

    TDisplay_NonParametric_Packet pkt;
    pkt.header.cmd = NDisplay_Command::Flip;
    902c:	e3a03001 	mov	r3, #1
    9030:	e54b3008 	strb	r3, [fp, #-8]
/home/schenkj/os2022/sp/sources/stdutils/src/oled.cpp:90

    write(mHandle, reinterpret_cast<char*>(&pkt), sizeof(pkt));
    9034:	e51b3010 	ldr	r3, [fp, #-16]
    9038:	e5933000 	ldr	r3, [r3]
    903c:	e24b1008 	sub	r1, fp, #8
    9040:	e3a02001 	mov	r2, #1
    9044:	e1a00003 	mov	r0, r3
    9048:	ebfffcff 	bl	844c <_Z5writejPKcj>
    904c:	ea000000 	b	9054 <_ZN13COLED_Display4FlipEv+0x50>
/home/schenkj/os2022/sp/sources/stdutils/src/oled.cpp:85
        return;
    9050:	e320f000 	nop	{0}
/home/schenkj/os2022/sp/sources/stdutils/src/oled.cpp:91
}
    9054:	e24bd004 	sub	sp, fp, #4
    9058:	e8bd8800 	pop	{fp, pc}

0000905c <_ZN13COLED_Display10Put_StringEttPKc>:
_ZN13COLED_Display10Put_StringEttPKc():
/home/schenkj/os2022/sp/sources/stdutils/src/oled.cpp:94

void COLED_Display::Put_String(uint16_t x, uint16_t y, const char* str)
{
    905c:	e92d4800 	push	{fp, lr}
    9060:	e28db004 	add	fp, sp, #4
    9064:	e24dd018 	sub	sp, sp, #24
    9068:	e50b0010 	str	r0, [fp, #-16]
    906c:	e50b3018 	str	r3, [fp, #-24]	; 0xffffffe8
    9070:	e1a03001 	mov	r3, r1
    9074:	e14b31b2 	strh	r3, [fp, #-18]	; 0xffffffee
    9078:	e1a03002 	mov	r3, r2
    907c:	e14b31b4 	strh	r3, [fp, #-20]	; 0xffffffec
/home/schenkj/os2022/sp/sources/stdutils/src/oled.cpp:95
    if (!mOpened)
    9080:	e51b3010 	ldr	r3, [fp, #-16]
    9084:	e5d33004 	ldrb	r3, [r3, #4]
    9088:	e2233001 	eor	r3, r3, #1
    908c:	e6ef3073 	uxtb	r3, r3
    9090:	e3530000 	cmp	r3, #0
    9094:	1a000019 	bne	9100 <_ZN13COLED_Display10Put_StringEttPKc+0xa4>
/home/schenkj/os2022/sp/sources/stdutils/src/oled.cpp:98
        return;

    uint16_t xi = x;
    9098:	e15b31b2 	ldrh	r3, [fp, #-18]	; 0xffffffee
    909c:	e14b30b6 	strh	r3, [fp, #-6]
/home/schenkj/os2022/sp/sources/stdutils/src/oled.cpp:99
    const char* ptr = str;
    90a0:	e51b3018 	ldr	r3, [fp, #-24]	; 0xffffffe8
    90a4:	e50b300c 	str	r3, [fp, #-12]
/home/schenkj/os2022/sp/sources/stdutils/src/oled.cpp:101
    // dokud nedojdeme na konec retezce nebo dokud nejsme 64 znaku daleko (limit, kdyby nahodou se neco pokazilo)
    while (*ptr != '\0' && ptr - str < 64)
    90a8:	e51b300c 	ldr	r3, [fp, #-12]
    90ac:	e5d33000 	ldrb	r3, [r3]
    90b0:	e3530000 	cmp	r3, #0
    90b4:	0a000012 	beq	9104 <_ZN13COLED_Display10Put_StringEttPKc+0xa8>
/home/schenkj/os2022/sp/sources/stdutils/src/oled.cpp:101 (discriminator 1)
    90b8:	e51b200c 	ldr	r2, [fp, #-12]
    90bc:	e51b3018 	ldr	r3, [fp, #-24]	; 0xffffffe8
    90c0:	e0423003 	sub	r3, r2, r3
    90c4:	e353003f 	cmp	r3, #63	; 0x3f
    90c8:	ca00000d 	bgt	9104 <_ZN13COLED_Display10Put_StringEttPKc+0xa8>
/home/schenkj/os2022/sp/sources/stdutils/src/oled.cpp:103
    {
        Put_Char(xi, y, *ptr);
    90cc:	e51b300c 	ldr	r3, [fp, #-12]
    90d0:	e5d33000 	ldrb	r3, [r3]
    90d4:	e15b21b4 	ldrh	r2, [fp, #-20]	; 0xffffffec
    90d8:	e15b10b6 	ldrh	r1, [fp, #-6]
    90dc:	e51b0010 	ldr	r0, [fp, #-16]
    90e0:	ebffff6d 	bl	8e9c <_ZN13COLED_Display8Put_CharEttc>
/home/schenkj/os2022/sp/sources/stdutils/src/oled.cpp:104
        xi += OLED_Font::Char_Width;
    90e4:	e15b30b6 	ldrh	r3, [fp, #-6]
    90e8:	e2833006 	add	r3, r3, #6
    90ec:	e14b30b6 	strh	r3, [fp, #-6]
/home/schenkj/os2022/sp/sources/stdutils/src/oled.cpp:105
        ptr++;
    90f0:	e51b300c 	ldr	r3, [fp, #-12]
    90f4:	e2833001 	add	r3, r3, #1
    90f8:	e50b300c 	str	r3, [fp, #-12]
/home/schenkj/os2022/sp/sources/stdutils/src/oled.cpp:101
    while (*ptr != '\0' && ptr - str < 64)
    90fc:	eaffffe9 	b	90a8 <_ZN13COLED_Display10Put_StringEttPKc+0x4c>
/home/schenkj/os2022/sp/sources/stdutils/src/oled.cpp:96
        return;
    9100:	e320f000 	nop	{0}
/home/schenkj/os2022/sp/sources/stdutils/src/oled.cpp:107
    }
}
    9104:	e24bd004 	sub	sp, fp, #4
    9108:	e8bd8800 	pop	{fp, pc}

0000910c <__udivsi3>:
__udivsi3():
/build/gcc-arm-none-eabi-Gl9kT9/gcc-arm-none-eabi-9-2019-q4/build/arm-none-eabi/arm/v5te/hard/libgcc/../../../../../../libgcc/config/arm/lib1funcs.S:1099
    910c:	e2512001 	subs	r2, r1, #1
/build/gcc-arm-none-eabi-Gl9kT9/gcc-arm-none-eabi-9-2019-q4/build/arm-none-eabi/arm/v5te/hard/libgcc/../../../../../../libgcc/config/arm/lib1funcs.S:1101
    9110:	012fff1e 	bxeq	lr
/build/gcc-arm-none-eabi-Gl9kT9/gcc-arm-none-eabi-9-2019-q4/build/arm-none-eabi/arm/v5te/hard/libgcc/../../../../../../libgcc/config/arm/lib1funcs.S:1102
    9114:	3a000074 	bcc	92ec <__udivsi3+0x1e0>
/build/gcc-arm-none-eabi-Gl9kT9/gcc-arm-none-eabi-9-2019-q4/build/arm-none-eabi/arm/v5te/hard/libgcc/../../../../../../libgcc/config/arm/lib1funcs.S:1103
    9118:	e1500001 	cmp	r0, r1
/build/gcc-arm-none-eabi-Gl9kT9/gcc-arm-none-eabi-9-2019-q4/build/arm-none-eabi/arm/v5te/hard/libgcc/../../../../../../libgcc/config/arm/lib1funcs.S:1104
    911c:	9a00006b 	bls	92d0 <__udivsi3+0x1c4>
/build/gcc-arm-none-eabi-Gl9kT9/gcc-arm-none-eabi-9-2019-q4/build/arm-none-eabi/arm/v5te/hard/libgcc/../../../../../../libgcc/config/arm/lib1funcs.S:1105
    9120:	e1110002 	tst	r1, r2
/build/gcc-arm-none-eabi-Gl9kT9/gcc-arm-none-eabi-9-2019-q4/build/arm-none-eabi/arm/v5te/hard/libgcc/../../../../../../libgcc/config/arm/lib1funcs.S:1106
    9124:	0a00006c 	beq	92dc <__udivsi3+0x1d0>
/build/gcc-arm-none-eabi-Gl9kT9/gcc-arm-none-eabi-9-2019-q4/build/arm-none-eabi/arm/v5te/hard/libgcc/../../../../../../libgcc/config/arm/lib1funcs.S:1108
    9128:	e16f3f10 	clz	r3, r0
    912c:	e16f2f11 	clz	r2, r1
    9130:	e0423003 	sub	r3, r2, r3
    9134:	e273301f 	rsbs	r3, r3, #31
    9138:	10833083 	addne	r3, r3, r3, lsl #1
    913c:	e3a02000 	mov	r2, #0
    9140:	108ff103 	addne	pc, pc, r3, lsl #2
    9144:	e1a00000 	nop			; (mov r0, r0)
    9148:	e1500f81 	cmp	r0, r1, lsl #31
    914c:	e0a22002 	adc	r2, r2, r2
    9150:	20400f81 	subcs	r0, r0, r1, lsl #31
    9154:	e1500f01 	cmp	r0, r1, lsl #30
    9158:	e0a22002 	adc	r2, r2, r2
    915c:	20400f01 	subcs	r0, r0, r1, lsl #30
    9160:	e1500e81 	cmp	r0, r1, lsl #29
    9164:	e0a22002 	adc	r2, r2, r2
    9168:	20400e81 	subcs	r0, r0, r1, lsl #29
    916c:	e1500e01 	cmp	r0, r1, lsl #28
    9170:	e0a22002 	adc	r2, r2, r2
    9174:	20400e01 	subcs	r0, r0, r1, lsl #28
    9178:	e1500d81 	cmp	r0, r1, lsl #27
    917c:	e0a22002 	adc	r2, r2, r2
    9180:	20400d81 	subcs	r0, r0, r1, lsl #27
    9184:	e1500d01 	cmp	r0, r1, lsl #26
    9188:	e0a22002 	adc	r2, r2, r2
    918c:	20400d01 	subcs	r0, r0, r1, lsl #26
    9190:	e1500c81 	cmp	r0, r1, lsl #25
    9194:	e0a22002 	adc	r2, r2, r2
    9198:	20400c81 	subcs	r0, r0, r1, lsl #25
    919c:	e1500c01 	cmp	r0, r1, lsl #24
    91a0:	e0a22002 	adc	r2, r2, r2
    91a4:	20400c01 	subcs	r0, r0, r1, lsl #24
    91a8:	e1500b81 	cmp	r0, r1, lsl #23
    91ac:	e0a22002 	adc	r2, r2, r2
    91b0:	20400b81 	subcs	r0, r0, r1, lsl #23
    91b4:	e1500b01 	cmp	r0, r1, lsl #22
    91b8:	e0a22002 	adc	r2, r2, r2
    91bc:	20400b01 	subcs	r0, r0, r1, lsl #22
    91c0:	e1500a81 	cmp	r0, r1, lsl #21
    91c4:	e0a22002 	adc	r2, r2, r2
    91c8:	20400a81 	subcs	r0, r0, r1, lsl #21
    91cc:	e1500a01 	cmp	r0, r1, lsl #20
    91d0:	e0a22002 	adc	r2, r2, r2
    91d4:	20400a01 	subcs	r0, r0, r1, lsl #20
    91d8:	e1500981 	cmp	r0, r1, lsl #19
    91dc:	e0a22002 	adc	r2, r2, r2
    91e0:	20400981 	subcs	r0, r0, r1, lsl #19
    91e4:	e1500901 	cmp	r0, r1, lsl #18
    91e8:	e0a22002 	adc	r2, r2, r2
    91ec:	20400901 	subcs	r0, r0, r1, lsl #18
    91f0:	e1500881 	cmp	r0, r1, lsl #17
    91f4:	e0a22002 	adc	r2, r2, r2
    91f8:	20400881 	subcs	r0, r0, r1, lsl #17
    91fc:	e1500801 	cmp	r0, r1, lsl #16
    9200:	e0a22002 	adc	r2, r2, r2
    9204:	20400801 	subcs	r0, r0, r1, lsl #16
    9208:	e1500781 	cmp	r0, r1, lsl #15
    920c:	e0a22002 	adc	r2, r2, r2
    9210:	20400781 	subcs	r0, r0, r1, lsl #15
    9214:	e1500701 	cmp	r0, r1, lsl #14
    9218:	e0a22002 	adc	r2, r2, r2
    921c:	20400701 	subcs	r0, r0, r1, lsl #14
    9220:	e1500681 	cmp	r0, r1, lsl #13
    9224:	e0a22002 	adc	r2, r2, r2
    9228:	20400681 	subcs	r0, r0, r1, lsl #13
    922c:	e1500601 	cmp	r0, r1, lsl #12
    9230:	e0a22002 	adc	r2, r2, r2
    9234:	20400601 	subcs	r0, r0, r1, lsl #12
    9238:	e1500581 	cmp	r0, r1, lsl #11
    923c:	e0a22002 	adc	r2, r2, r2
    9240:	20400581 	subcs	r0, r0, r1, lsl #11
    9244:	e1500501 	cmp	r0, r1, lsl #10
    9248:	e0a22002 	adc	r2, r2, r2
    924c:	20400501 	subcs	r0, r0, r1, lsl #10
    9250:	e1500481 	cmp	r0, r1, lsl #9
    9254:	e0a22002 	adc	r2, r2, r2
    9258:	20400481 	subcs	r0, r0, r1, lsl #9
    925c:	e1500401 	cmp	r0, r1, lsl #8
    9260:	e0a22002 	adc	r2, r2, r2
    9264:	20400401 	subcs	r0, r0, r1, lsl #8
    9268:	e1500381 	cmp	r0, r1, lsl #7
    926c:	e0a22002 	adc	r2, r2, r2
    9270:	20400381 	subcs	r0, r0, r1, lsl #7
    9274:	e1500301 	cmp	r0, r1, lsl #6
    9278:	e0a22002 	adc	r2, r2, r2
    927c:	20400301 	subcs	r0, r0, r1, lsl #6
    9280:	e1500281 	cmp	r0, r1, lsl #5
    9284:	e0a22002 	adc	r2, r2, r2
    9288:	20400281 	subcs	r0, r0, r1, lsl #5
    928c:	e1500201 	cmp	r0, r1, lsl #4
    9290:	e0a22002 	adc	r2, r2, r2
    9294:	20400201 	subcs	r0, r0, r1, lsl #4
    9298:	e1500181 	cmp	r0, r1, lsl #3
    929c:	e0a22002 	adc	r2, r2, r2
    92a0:	20400181 	subcs	r0, r0, r1, lsl #3
    92a4:	e1500101 	cmp	r0, r1, lsl #2
    92a8:	e0a22002 	adc	r2, r2, r2
    92ac:	20400101 	subcs	r0, r0, r1, lsl #2
    92b0:	e1500081 	cmp	r0, r1, lsl #1
    92b4:	e0a22002 	adc	r2, r2, r2
    92b8:	20400081 	subcs	r0, r0, r1, lsl #1
    92bc:	e1500001 	cmp	r0, r1
    92c0:	e0a22002 	adc	r2, r2, r2
    92c4:	20400001 	subcs	r0, r0, r1
/build/gcc-arm-none-eabi-Gl9kT9/gcc-arm-none-eabi-9-2019-q4/build/arm-none-eabi/arm/v5te/hard/libgcc/../../../../../../libgcc/config/arm/lib1funcs.S:1110
    92c8:	e1a00002 	mov	r0, r2
/build/gcc-arm-none-eabi-Gl9kT9/gcc-arm-none-eabi-9-2019-q4/build/arm-none-eabi/arm/v5te/hard/libgcc/../../../../../../libgcc/config/arm/lib1funcs.S:1111
    92cc:	e12fff1e 	bx	lr
/build/gcc-arm-none-eabi-Gl9kT9/gcc-arm-none-eabi-9-2019-q4/build/arm-none-eabi/arm/v5te/hard/libgcc/../../../../../../libgcc/config/arm/lib1funcs.S:1114
    92d0:	03a00001 	moveq	r0, #1
/build/gcc-arm-none-eabi-Gl9kT9/gcc-arm-none-eabi-9-2019-q4/build/arm-none-eabi/arm/v5te/hard/libgcc/../../../../../../libgcc/config/arm/lib1funcs.S:1115
    92d4:	13a00000 	movne	r0, #0
/build/gcc-arm-none-eabi-Gl9kT9/gcc-arm-none-eabi-9-2019-q4/build/arm-none-eabi/arm/v5te/hard/libgcc/../../../../../../libgcc/config/arm/lib1funcs.S:1116
    92d8:	e12fff1e 	bx	lr
/build/gcc-arm-none-eabi-Gl9kT9/gcc-arm-none-eabi-9-2019-q4/build/arm-none-eabi/arm/v5te/hard/libgcc/../../../../../../libgcc/config/arm/lib1funcs.S:1118
    92dc:	e16f2f11 	clz	r2, r1
    92e0:	e262201f 	rsb	r2, r2, #31
/build/gcc-arm-none-eabi-Gl9kT9/gcc-arm-none-eabi-9-2019-q4/build/arm-none-eabi/arm/v5te/hard/libgcc/../../../../../../libgcc/config/arm/lib1funcs.S:1120
    92e4:	e1a00230 	lsr	r0, r0, r2
/build/gcc-arm-none-eabi-Gl9kT9/gcc-arm-none-eabi-9-2019-q4/build/arm-none-eabi/arm/v5te/hard/libgcc/../../../../../../libgcc/config/arm/lib1funcs.S:1121
    92e8:	e12fff1e 	bx	lr
/build/gcc-arm-none-eabi-Gl9kT9/gcc-arm-none-eabi-9-2019-q4/build/arm-none-eabi/arm/v5te/hard/libgcc/../../../../../../libgcc/config/arm/lib1funcs.S:1125
    92ec:	e3500000 	cmp	r0, #0
    92f0:	13e00000 	mvnne	r0, #0
    92f4:	ea000007 	b	9318 <__aeabi_idiv0>

000092f8 <__aeabi_uidivmod>:
__aeabi_uidivmod():
/build/gcc-arm-none-eabi-Gl9kT9/gcc-arm-none-eabi-9-2019-q4/build/arm-none-eabi/arm/v5te/hard/libgcc/../../../../../../libgcc/config/arm/lib1funcs.S:1156
    92f8:	e3510000 	cmp	r1, #0
/build/gcc-arm-none-eabi-Gl9kT9/gcc-arm-none-eabi-9-2019-q4/build/arm-none-eabi/arm/v5te/hard/libgcc/../../../../../../libgcc/config/arm/lib1funcs.S:1157
    92fc:	0afffffa 	beq	92ec <__udivsi3+0x1e0>
/build/gcc-arm-none-eabi-Gl9kT9/gcc-arm-none-eabi-9-2019-q4/build/arm-none-eabi/arm/v5te/hard/libgcc/../../../../../../libgcc/config/arm/lib1funcs.S:1158
    9300:	e92d4003 	push	{r0, r1, lr}
/build/gcc-arm-none-eabi-Gl9kT9/gcc-arm-none-eabi-9-2019-q4/build/arm-none-eabi/arm/v5te/hard/libgcc/../../../../../../libgcc/config/arm/lib1funcs.S:1159
    9304:	ebffff80 	bl	910c <__udivsi3>
/build/gcc-arm-none-eabi-Gl9kT9/gcc-arm-none-eabi-9-2019-q4/build/arm-none-eabi/arm/v5te/hard/libgcc/../../../../../../libgcc/config/arm/lib1funcs.S:1160
    9308:	e8bd4006 	pop	{r1, r2, lr}
/build/gcc-arm-none-eabi-Gl9kT9/gcc-arm-none-eabi-9-2019-q4/build/arm-none-eabi/arm/v5te/hard/libgcc/../../../../../../libgcc/config/arm/lib1funcs.S:1161
    930c:	e0030092 	mul	r3, r2, r0
/build/gcc-arm-none-eabi-Gl9kT9/gcc-arm-none-eabi-9-2019-q4/build/arm-none-eabi/arm/v5te/hard/libgcc/../../../../../../libgcc/config/arm/lib1funcs.S:1162
    9310:	e0411003 	sub	r1, r1, r3
/build/gcc-arm-none-eabi-Gl9kT9/gcc-arm-none-eabi-9-2019-q4/build/arm-none-eabi/arm/v5te/hard/libgcc/../../../../../../libgcc/config/arm/lib1funcs.S:1163
    9314:	e12fff1e 	bx	lr

00009318 <__aeabi_idiv0>:
__aeabi_ldiv0():
/build/gcc-arm-none-eabi-Gl9kT9/gcc-arm-none-eabi-9-2019-q4/build/arm-none-eabi/arm/v5te/hard/libgcc/../../../../../../libgcc/config/arm/lib1funcs.S:1461
    9318:	e12fff1e 	bx	lr
