
./sp_task:     file format elf32-littlearm


Disassembly of section .text:

00008000 <_start>:
_start():
/home/schenkj/os2022/sp/sources/userspace/crt0.s:10
;@ startovaci symbol - vstupni bod z jadra OS do uzivatelskeho programu
;@ v podstate jen ihned zavola nejakou C funkci, nepotrebujeme nic tak kritickeho, abychom to vsechno museli psal v ASM
;@ jen _start vlastne ani neni funkce, takze by tento vstupni bod mel byt psany takto; rovnez je treba se ujistit, ze
;@ je tento symbol relokovany spravne na 0x8000 (tam OS ocekava, ze se nachazi vstupni bod)
_start:
    bl __crt0_run
    8000:	eb000017 	bl	8064 <__crt0_run>

00008004 <_hang>:
_hang():
/home/schenkj/os2022/sp/sources/userspace/crt0.s:13
    ;@ z funkce __crt0_run by se nemel proces uz vratit, ale kdyby neco, tak se zacyklime
_hang:
    b _hang
    8004:	eafffffe 	b	8004 <_hang>

00008008 <__crt0_init_bss>:
__crt0_init_bss():
/home/schenkj/os2022/sp/sources/userspace/crt0.c:10

extern unsigned int __bss_start;
extern unsigned int __bss_end;

void __crt0_init_bss()
{
    8008:	e52db004 	push	{fp}		; (str fp, [sp, #-4]!)
    800c:	e28db000 	add	fp, sp, #0
    8010:	e24dd00c 	sub	sp, sp, #12
/home/schenkj/os2022/sp/sources/userspace/crt0.c:11
    for (unsigned int* cur = &__bss_start; cur < &__bss_end; cur++)
    8014:	e59f3040 	ldr	r3, [pc, #64]	; 805c <__crt0_init_bss+0x54>
    8018:	e50b3008 	str	r3, [fp, #-8]
    801c:	ea000005 	b	8038 <__crt0_init_bss+0x30>
/home/schenkj/os2022/sp/sources/userspace/crt0.c:12 (discriminator 3)
        *cur = 0;
    8020:	e51b3008 	ldr	r3, [fp, #-8]
    8024:	e3a02000 	mov	r2, #0
    8028:	e5832000 	str	r2, [r3]
/home/schenkj/os2022/sp/sources/userspace/crt0.c:11 (discriminator 3)
    for (unsigned int* cur = &__bss_start; cur < &__bss_end; cur++)
    802c:	e51b3008 	ldr	r3, [fp, #-8]
    8030:	e2833004 	add	r3, r3, #4
    8034:	e50b3008 	str	r3, [fp, #-8]
/home/schenkj/os2022/sp/sources/userspace/crt0.c:11 (discriminator 1)
    8038:	e51b3008 	ldr	r3, [fp, #-8]
    803c:	e59f201c 	ldr	r2, [pc, #28]	; 8060 <__crt0_init_bss+0x58>
    8040:	e1530002 	cmp	r3, r2
    8044:	3afffff5 	bcc	8020 <__crt0_init_bss+0x18>
/home/schenkj/os2022/sp/sources/userspace/crt0.c:13
}
    8048:	e320f000 	nop	{0}
    804c:	e320f000 	nop	{0}
    8050:	e28bd000 	add	sp, fp, #0
    8054:	e49db004 	pop	{fp}		; (ldr fp, [sp], #4)
    8058:	e12fff1e 	bx	lr
    805c:	0000b468 	andeq	fp, r0, r8, ror #8
    8060:	0000b938 	andeq	fp, r0, r8, lsr r9

00008064 <__crt0_run>:
__crt0_run():
/home/schenkj/os2022/sp/sources/userspace/crt0.c:16

void __crt0_run()
{
    8064:	e92d4800 	push	{fp, lr}
    8068:	e28db004 	add	fp, sp, #4
    806c:	e24dd008 	sub	sp, sp, #8
/home/schenkj/os2022/sp/sources/userspace/crt0.c:18
    // inicializace .bss sekce (vynulovani)
    __crt0_init_bss();
    8070:	ebffffe4 	bl	8008 <__crt0_init_bss>
/home/schenkj/os2022/sp/sources/userspace/crt0.c:21

    // volani konstruktoru globalnich trid (C++)
    _cpp_startup();
    8074:	eb000040 	bl	817c <_cpp_startup>
/home/schenkj/os2022/sp/sources/userspace/crt0.c:26

    // volani funkce main
    // nebudeme se zde zabyvat predavanim parametru do funkce main
    // jinak by se mohly predavat napr. namapovane do virtualniho adr. prostoru a odkazem pres zasobnik (kam nam muze OS pushnout co chce)
    int result = main(0, 0);
    8078:	e3a01000 	mov	r1, #0
    807c:	e3a00000 	mov	r0, #0
    8080:	eb000602 	bl	9890 <main>
    8084:	e50b0008 	str	r0, [fp, #-8]
/home/schenkj/os2022/sp/sources/userspace/crt0.c:29

    // volani destruktoru globalnich trid (C++)
    _cpp_shutdown();
    8088:	eb000051 	bl	81d4 <_cpp_shutdown>
/home/schenkj/os2022/sp/sources/userspace/crt0.c:32

    // volani terminate() syscallu s navratovym kodem funkce main
    asm volatile("mov r0, %0" : : "r" (result));
    808c:	e51b3008 	ldr	r3, [fp, #-8]
    8090:	e1a00003 	mov	r0, r3
/home/schenkj/os2022/sp/sources/userspace/crt0.c:33
    asm volatile("svc #1");
    8094:	ef000001 	svc	0x00000001
/home/schenkj/os2022/sp/sources/userspace/crt0.c:34
}
    8098:	e320f000 	nop	{0}
    809c:	e24bd004 	sub	sp, fp, #4
    80a0:	e8bd8800 	pop	{fp, pc}

000080a4 <__cxa_guard_acquire>:
__cxa_guard_acquire():
/home/schenkj/os2022/sp/sources/userspace/cxxabi.cpp:11
	extern "C" int __cxa_guard_acquire (__guard *);
	extern "C" void __cxa_guard_release (__guard *);
	extern "C" void __cxa_guard_abort (__guard *);

	extern "C" int __cxa_guard_acquire (__guard *g)
	{
    80a4:	e52db004 	push	{fp}		; (str fp, [sp, #-4]!)
    80a8:	e28db000 	add	fp, sp, #0
    80ac:	e24dd00c 	sub	sp, sp, #12
    80b0:	e50b0008 	str	r0, [fp, #-8]
/home/schenkj/os2022/sp/sources/userspace/cxxabi.cpp:12
		return !*(char *)(g);
    80b4:	e51b3008 	ldr	r3, [fp, #-8]
    80b8:	e5d33000 	ldrb	r3, [r3]
    80bc:	e3530000 	cmp	r3, #0
    80c0:	03a03001 	moveq	r3, #1
    80c4:	13a03000 	movne	r3, #0
    80c8:	e6ef3073 	uxtb	r3, r3
/home/schenkj/os2022/sp/sources/userspace/cxxabi.cpp:13
	}
    80cc:	e1a00003 	mov	r0, r3
    80d0:	e28bd000 	add	sp, fp, #0
    80d4:	e49db004 	pop	{fp}		; (ldr fp, [sp], #4)
    80d8:	e12fff1e 	bx	lr

000080dc <__cxa_guard_release>:
__cxa_guard_release():
/home/schenkj/os2022/sp/sources/userspace/cxxabi.cpp:16

	extern "C" void __cxa_guard_release (__guard *g)
	{
    80dc:	e52db004 	push	{fp}		; (str fp, [sp, #-4]!)
    80e0:	e28db000 	add	fp, sp, #0
    80e4:	e24dd00c 	sub	sp, sp, #12
    80e8:	e50b0008 	str	r0, [fp, #-8]
/home/schenkj/os2022/sp/sources/userspace/cxxabi.cpp:17
		*(char *)g = 1;
    80ec:	e51b3008 	ldr	r3, [fp, #-8]
    80f0:	e3a02001 	mov	r2, #1
    80f4:	e5c32000 	strb	r2, [r3]
/home/schenkj/os2022/sp/sources/userspace/cxxabi.cpp:18
	}
    80f8:	e320f000 	nop	{0}
    80fc:	e28bd000 	add	sp, fp, #0
    8100:	e49db004 	pop	{fp}		; (ldr fp, [sp], #4)
    8104:	e12fff1e 	bx	lr

00008108 <__cxa_guard_abort>:
__cxa_guard_abort():
/home/schenkj/os2022/sp/sources/userspace/cxxabi.cpp:21

	extern "C" void __cxa_guard_abort (__guard *)
	{
    8108:	e52db004 	push	{fp}		; (str fp, [sp, #-4]!)
    810c:	e28db000 	add	fp, sp, #0
    8110:	e24dd00c 	sub	sp, sp, #12
    8114:	e50b0008 	str	r0, [fp, #-8]
/home/schenkj/os2022/sp/sources/userspace/cxxabi.cpp:23

	}
    8118:	e320f000 	nop	{0}
    811c:	e28bd000 	add	sp, fp, #0
    8120:	e49db004 	pop	{fp}		; (ldr fp, [sp], #4)
    8124:	e12fff1e 	bx	lr

00008128 <__dso_handle>:
__dso_handle():
/home/schenkj/os2022/sp/sources/userspace/cxxabi.cpp:27
}

extern "C" void __dso_handle()
{
    8128:	e52db004 	push	{fp}		; (str fp, [sp, #-4]!)
    812c:	e28db000 	add	fp, sp, #0
/home/schenkj/os2022/sp/sources/userspace/cxxabi.cpp:29
    // ignore dtors for now
}
    8130:	e320f000 	nop	{0}
    8134:	e28bd000 	add	sp, fp, #0
    8138:	e49db004 	pop	{fp}		; (ldr fp, [sp], #4)
    813c:	e12fff1e 	bx	lr

00008140 <__cxa_atexit>:
__cxa_atexit():
/home/schenkj/os2022/sp/sources/userspace/cxxabi.cpp:32

extern "C" void __cxa_atexit()
{
    8140:	e52db004 	push	{fp}		; (str fp, [sp, #-4]!)
    8144:	e28db000 	add	fp, sp, #0
/home/schenkj/os2022/sp/sources/userspace/cxxabi.cpp:34
    // ignore dtors for now
}
    8148:	e320f000 	nop	{0}
    814c:	e28bd000 	add	sp, fp, #0
    8150:	e49db004 	pop	{fp}		; (ldr fp, [sp], #4)
    8154:	e12fff1e 	bx	lr

00008158 <__cxa_pure_virtual>:
__cxa_pure_virtual():
/home/schenkj/os2022/sp/sources/userspace/cxxabi.cpp:37

extern "C" void __cxa_pure_virtual()
{
    8158:	e52db004 	push	{fp}		; (str fp, [sp, #-4]!)
    815c:	e28db000 	add	fp, sp, #0
/home/schenkj/os2022/sp/sources/userspace/cxxabi.cpp:39
    // pure virtual method called
}
    8160:	e320f000 	nop	{0}
    8164:	e28bd000 	add	sp, fp, #0
    8168:	e49db004 	pop	{fp}		; (ldr fp, [sp], #4)
    816c:	e12fff1e 	bx	lr

00008170 <__aeabi_unwind_cpp_pr1>:
__aeabi_unwind_cpp_pr1():
/home/schenkj/os2022/sp/sources/userspace/cxxabi.cpp:42

extern "C" void __aeabi_unwind_cpp_pr1()
{
    8170:	e52db004 	push	{fp}		; (str fp, [sp, #-4]!)
    8174:	e28db000 	add	fp, sp, #0
/home/schenkj/os2022/sp/sources/userspace/cxxabi.cpp:43 (discriminator 1)
	while (true)
    8178:	eafffffe 	b	8178 <__aeabi_unwind_cpp_pr1+0x8>

0000817c <_cpp_startup>:
_cpp_startup():
/home/schenkj/os2022/sp/sources/userspace/cxxabi.cpp:61
extern "C" dtor_ptr __DTOR_LIST__[0];
// konec pole destruktoru
extern "C" dtor_ptr __DTOR_END__[0];

extern "C" int _cpp_startup(void)
{
    817c:	e92d4800 	push	{fp, lr}
    8180:	e28db004 	add	fp, sp, #4
    8184:	e24dd008 	sub	sp, sp, #8
/home/schenkj/os2022/sp/sources/userspace/cxxabi.cpp:66
	ctor_ptr* fnptr;
	
	// zavolame konstruktory globalnich C++ trid
	// v poli __CTOR_LIST__ jsou ukazatele na vygenerovane stuby volani konstruktoru
	for (fnptr = __CTOR_LIST__; fnptr < __CTOR_END__; fnptr++)
    8188:	e59f303c 	ldr	r3, [pc, #60]	; 81cc <_cpp_startup+0x50>
    818c:	e50b3008 	str	r3, [fp, #-8]
/home/schenkj/os2022/sp/sources/userspace/cxxabi.cpp:66 (discriminator 3)
    8190:	e51b3008 	ldr	r3, [fp, #-8]
    8194:	e59f2034 	ldr	r2, [pc, #52]	; 81d0 <_cpp_startup+0x54>
    8198:	e1530002 	cmp	r3, r2
    819c:	2a000006 	bcs	81bc <_cpp_startup+0x40>
/home/schenkj/os2022/sp/sources/userspace/cxxabi.cpp:67 (discriminator 2)
		(*fnptr)();
    81a0:	e51b3008 	ldr	r3, [fp, #-8]
    81a4:	e5933000 	ldr	r3, [r3]
    81a8:	e12fff33 	blx	r3
/home/schenkj/os2022/sp/sources/userspace/cxxabi.cpp:66 (discriminator 2)
	for (fnptr = __CTOR_LIST__; fnptr < __CTOR_END__; fnptr++)
    81ac:	e51b3008 	ldr	r3, [fp, #-8]
    81b0:	e2833004 	add	r3, r3, #4
    81b4:	e50b3008 	str	r3, [fp, #-8]
    81b8:	eafffff4 	b	8190 <_cpp_startup+0x14>
/home/schenkj/os2022/sp/sources/userspace/cxxabi.cpp:69
	
	return 0;
    81bc:	e3a03000 	mov	r3, #0
/home/schenkj/os2022/sp/sources/userspace/cxxabi.cpp:70
}
    81c0:	e1a00003 	mov	r0, r3
    81c4:	e24bd004 	sub	sp, fp, #4
    81c8:	e8bd8800 	pop	{fp, pc}
    81cc:	0000b460 	andeq	fp, r0, r0, ror #8
    81d0:	0000b464 	andeq	fp, r0, r4, ror #8

000081d4 <_cpp_shutdown>:
_cpp_shutdown():
/home/schenkj/os2022/sp/sources/userspace/cxxabi.cpp:73

extern "C" int _cpp_shutdown(void)
{
    81d4:	e92d4800 	push	{fp, lr}
    81d8:	e28db004 	add	fp, sp, #4
    81dc:	e24dd008 	sub	sp, sp, #8
/home/schenkj/os2022/sp/sources/userspace/cxxabi.cpp:77
	dtor_ptr* fnptr;
	
	// zavolame destruktory globalnich C++ trid
	for (fnptr = __DTOR_LIST__; fnptr < __DTOR_END__; fnptr++)
    81e0:	e59f303c 	ldr	r3, [pc, #60]	; 8224 <_cpp_shutdown+0x50>
    81e4:	e50b3008 	str	r3, [fp, #-8]
/home/schenkj/os2022/sp/sources/userspace/cxxabi.cpp:77 (discriminator 3)
    81e8:	e51b3008 	ldr	r3, [fp, #-8]
    81ec:	e59f2034 	ldr	r2, [pc, #52]	; 8228 <_cpp_shutdown+0x54>
    81f0:	e1530002 	cmp	r3, r2
    81f4:	2a000006 	bcs	8214 <_cpp_shutdown+0x40>
/home/schenkj/os2022/sp/sources/userspace/cxxabi.cpp:78 (discriminator 2)
		(*fnptr)();
    81f8:	e51b3008 	ldr	r3, [fp, #-8]
    81fc:	e5933000 	ldr	r3, [r3]
    8200:	e12fff33 	blx	r3
/home/schenkj/os2022/sp/sources/userspace/cxxabi.cpp:77 (discriminator 2)
	for (fnptr = __DTOR_LIST__; fnptr < __DTOR_END__; fnptr++)
    8204:	e51b3008 	ldr	r3, [fp, #-8]
    8208:	e2833004 	add	r3, r3, #4
    820c:	e50b3008 	str	r3, [fp, #-8]
    8210:	eafffff4 	b	81e8 <_cpp_shutdown+0x14>
/home/schenkj/os2022/sp/sources/userspace/cxxabi.cpp:80
	
	return 0;
    8214:	e3a03000 	mov	r3, #0
/home/schenkj/os2022/sp/sources/userspace/cxxabi.cpp:81
}
    8218:	e1a00003 	mov	r0, r3
    821c:	e24bd004 	sub	sp, fp, #4
    8220:	e8bd8800 	pop	{fp, pc}
    8224:	0000b464 	andeq	fp, r0, r4, ror #8
    8228:	0000b464 	andeq	fp, r0, r4, ror #8
    822c:	00000000 	andeq	r0, r0, r0

00008230 <_Z3genii>:
_Z3genii():
/home/schenkj/os2022/sp/sources/userspace/sp_task/main.cpp:54
//if there is generated new member of population etc. this defines range in which parameterrs are
const uint32_t RANDOM_RANGE = 50;


//get from two dimensional array gen(x,y) => generation[x,y];
float gen(int x, int y){
    8230:	e52db004 	push	{fp}		; (str fp, [sp, #-4]!)
    8234:	e28db000 	add	fp, sp, #0
    8238:	e24dd00c 	sub	sp, sp, #12
    823c:	e50b0008 	str	r0, [fp, #-8]
    8240:	e50b100c 	str	r1, [fp, #-12]
/home/schenkj/os2022/sp/sources/userspace/sp_task/main.cpp:55
	if(y==0)return generationA[x];
    8244:	e51b300c 	ldr	r3, [fp, #-12]
    8248:	e3530000 	cmp	r3, #0
    824c:	1a000005 	bne	8268 <_Z3genii+0x38>
/home/schenkj/os2022/sp/sources/userspace/sp_task/main.cpp:55 (discriminator 1)
    8250:	e59f20b8 	ldr	r2, [pc, #184]	; 8310 <_Z3genii+0xe0>
    8254:	e51b3008 	ldr	r3, [fp, #-8]
    8258:	e1a03103 	lsl	r3, r3, #2
    825c:	e0823003 	add	r3, r2, r3
    8260:	e5933000 	ldr	r3, [r3]
    8264:	ea000024 	b	82fc <_Z3genii+0xcc>
/home/schenkj/os2022/sp/sources/userspace/sp_task/main.cpp:56
	else if(y==1)return generationB[x];
    8268:	e51b300c 	ldr	r3, [fp, #-12]
    826c:	e3530001 	cmp	r3, #1
    8270:	1a000005 	bne	828c <_Z3genii+0x5c>
/home/schenkj/os2022/sp/sources/userspace/sp_task/main.cpp:56 (discriminator 1)
    8274:	e59f2098 	ldr	r2, [pc, #152]	; 8314 <_Z3genii+0xe4>
    8278:	e51b3008 	ldr	r3, [fp, #-8]
    827c:	e1a03103 	lsl	r3, r3, #2
    8280:	e0823003 	add	r3, r2, r3
    8284:	e5933000 	ldr	r3, [r3]
    8288:	ea00001b 	b	82fc <_Z3genii+0xcc>
/home/schenkj/os2022/sp/sources/userspace/sp_task/main.cpp:57
	else if(y==2)return generationC[x];
    828c:	e51b300c 	ldr	r3, [fp, #-12]
    8290:	e3530002 	cmp	r3, #2
    8294:	1a000005 	bne	82b0 <_Z3genii+0x80>
/home/schenkj/os2022/sp/sources/userspace/sp_task/main.cpp:57 (discriminator 1)
    8298:	e59f2078 	ldr	r2, [pc, #120]	; 8318 <_Z3genii+0xe8>
    829c:	e51b3008 	ldr	r3, [fp, #-8]
    82a0:	e1a03103 	lsl	r3, r3, #2
    82a4:	e0823003 	add	r3, r2, r3
    82a8:	e5933000 	ldr	r3, [r3]
    82ac:	ea000012 	b	82fc <_Z3genii+0xcc>
/home/schenkj/os2022/sp/sources/userspace/sp_task/main.cpp:58
	else if(y==3)return generationD[x];
    82b0:	e51b300c 	ldr	r3, [fp, #-12]
    82b4:	e3530003 	cmp	r3, #3
    82b8:	1a000005 	bne	82d4 <_Z3genii+0xa4>
/home/schenkj/os2022/sp/sources/userspace/sp_task/main.cpp:58 (discriminator 1)
    82bc:	e59f2058 	ldr	r2, [pc, #88]	; 831c <_Z3genii+0xec>
    82c0:	e51b3008 	ldr	r3, [fp, #-8]
    82c4:	e1a03103 	lsl	r3, r3, #2
    82c8:	e0823003 	add	r3, r2, r3
    82cc:	e5933000 	ldr	r3, [r3]
    82d0:	ea000009 	b	82fc <_Z3genii+0xcc>
/home/schenkj/os2022/sp/sources/userspace/sp_task/main.cpp:59
	else if(y==4)return generationE[x];
    82d4:	e51b300c 	ldr	r3, [fp, #-12]
    82d8:	e3530004 	cmp	r3, #4
    82dc:	1a000005 	bne	82f8 <_Z3genii+0xc8>
/home/schenkj/os2022/sp/sources/userspace/sp_task/main.cpp:59 (discriminator 1)
    82e0:	e59f2038 	ldr	r2, [pc, #56]	; 8320 <_Z3genii+0xf0>
    82e4:	e51b3008 	ldr	r3, [fp, #-8]
    82e8:	e1a03103 	lsl	r3, r3, #2
    82ec:	e0823003 	add	r3, r2, r3
    82f0:	e5933000 	ldr	r3, [r3]
    82f4:	ea000000 	b	82fc <_Z3genii+0xcc>
/home/schenkj/os2022/sp/sources/userspace/sp_task/main.cpp:60
	else return 0;
    82f8:	e3a03000 	mov	r3, #0
    82fc:	ee073a90 	vmov	s15, r3
/home/schenkj/os2022/sp/sources/userspace/sp_task/main.cpp:61
}
    8300:	eeb00a67 	vmov.f32	s0, s15
    8304:	e28bd000 	add	sp, fp, #0
    8308:	e49db004 	pop	{fp}		; (ldr fp, [sp], #4)
    830c:	e12fff1e 	bx	lr
    8310:	0000b47c 	andeq	fp, r0, ip, ror r4
    8314:	0000b544 	andeq	fp, r0, r4, asr #10
    8318:	0000b60c 	andeq	fp, r0, ip, lsl #12
    831c:	0000b6d4 	ldrdeq	fp, [r0], -r4
    8320:	0000b79c 	muleq	r0, ip, r7

00008324 <_Z5genIsiif>:
_Z5genIsiif():
/home/schenkj/os2022/sp/sources/userspace/sp_task/main.cpp:63
//set for two dimensional array genIs(x,y,val) => generation[x,y]=val;
void genIs(int x, int y, float value){
    8324:	e52db004 	push	{fp}		; (str fp, [sp, #-4]!)
    8328:	e28db000 	add	fp, sp, #0
    832c:	e24dd014 	sub	sp, sp, #20
    8330:	e50b0008 	str	r0, [fp, #-8]
    8334:	e50b100c 	str	r1, [fp, #-12]
    8338:	ed0b0a04 	vstr	s0, [fp, #-16]
/home/schenkj/os2022/sp/sources/userspace/sp_task/main.cpp:64
	if(y==0) generationA[x]=value;
    833c:	e51b300c 	ldr	r3, [fp, #-12]
    8340:	e3530000 	cmp	r3, #0
    8344:	1a000006 	bne	8364 <_Z5genIsiif+0x40>
/home/schenkj/os2022/sp/sources/userspace/sp_task/main.cpp:64 (discriminator 1)
    8348:	e59f20c4 	ldr	r2, [pc, #196]	; 8414 <_Z5genIsiif+0xf0>
    834c:	e51b3008 	ldr	r3, [fp, #-8]
    8350:	e1a03103 	lsl	r3, r3, #2
    8354:	e0823003 	add	r3, r2, r3
    8358:	e51b2010 	ldr	r2, [fp, #-16]
    835c:	e5832000 	str	r2, [r3]
    8360:	ea000028 	b	8408 <_Z5genIsiif+0xe4>
/home/schenkj/os2022/sp/sources/userspace/sp_task/main.cpp:65
	else if(y==1) generationB[x]=value;
    8364:	e51b300c 	ldr	r3, [fp, #-12]
    8368:	e3530001 	cmp	r3, #1
    836c:	1a000006 	bne	838c <_Z5genIsiif+0x68>
/home/schenkj/os2022/sp/sources/userspace/sp_task/main.cpp:65 (discriminator 1)
    8370:	e59f20a0 	ldr	r2, [pc, #160]	; 8418 <_Z5genIsiif+0xf4>
    8374:	e51b3008 	ldr	r3, [fp, #-8]
    8378:	e1a03103 	lsl	r3, r3, #2
    837c:	e0823003 	add	r3, r2, r3
    8380:	e51b2010 	ldr	r2, [fp, #-16]
    8384:	e5832000 	str	r2, [r3]
    8388:	ea00001e 	b	8408 <_Z5genIsiif+0xe4>
/home/schenkj/os2022/sp/sources/userspace/sp_task/main.cpp:66
	else if(y==2) generationC[x]=value;
    838c:	e51b300c 	ldr	r3, [fp, #-12]
    8390:	e3530002 	cmp	r3, #2
    8394:	1a000006 	bne	83b4 <_Z5genIsiif+0x90>
/home/schenkj/os2022/sp/sources/userspace/sp_task/main.cpp:66 (discriminator 1)
    8398:	e59f207c 	ldr	r2, [pc, #124]	; 841c <_Z5genIsiif+0xf8>
    839c:	e51b3008 	ldr	r3, [fp, #-8]
    83a0:	e1a03103 	lsl	r3, r3, #2
    83a4:	e0823003 	add	r3, r2, r3
    83a8:	e51b2010 	ldr	r2, [fp, #-16]
    83ac:	e5832000 	str	r2, [r3]
    83b0:	ea000014 	b	8408 <_Z5genIsiif+0xe4>
/home/schenkj/os2022/sp/sources/userspace/sp_task/main.cpp:67
	else if(y==3) generationD[x]=value;
    83b4:	e51b300c 	ldr	r3, [fp, #-12]
    83b8:	e3530003 	cmp	r3, #3
    83bc:	1a000006 	bne	83dc <_Z5genIsiif+0xb8>
/home/schenkj/os2022/sp/sources/userspace/sp_task/main.cpp:67 (discriminator 1)
    83c0:	e59f2058 	ldr	r2, [pc, #88]	; 8420 <_Z5genIsiif+0xfc>
    83c4:	e51b3008 	ldr	r3, [fp, #-8]
    83c8:	e1a03103 	lsl	r3, r3, #2
    83cc:	e0823003 	add	r3, r2, r3
    83d0:	e51b2010 	ldr	r2, [fp, #-16]
    83d4:	e5832000 	str	r2, [r3]
    83d8:	ea00000a 	b	8408 <_Z5genIsiif+0xe4>
/home/schenkj/os2022/sp/sources/userspace/sp_task/main.cpp:68
	else if(y==4) generationE[x]=value;
    83dc:	e51b300c 	ldr	r3, [fp, #-12]
    83e0:	e3530004 	cmp	r3, #4
    83e4:	1a000006 	bne	8404 <_Z5genIsiif+0xe0>
/home/schenkj/os2022/sp/sources/userspace/sp_task/main.cpp:68 (discriminator 1)
    83e8:	e59f2034 	ldr	r2, [pc, #52]	; 8424 <_Z5genIsiif+0x100>
    83ec:	e51b3008 	ldr	r3, [fp, #-8]
    83f0:	e1a03103 	lsl	r3, r3, #2
    83f4:	e0823003 	add	r3, r2, r3
    83f8:	e51b2010 	ldr	r2, [fp, #-16]
    83fc:	e5832000 	str	r2, [r3]
    8400:	ea000000 	b	8408 <_Z5genIsiif+0xe4>
/home/schenkj/os2022/sp/sources/userspace/sp_task/main.cpp:69
	else return;
    8404:	e320f000 	nop	{0}
/home/schenkj/os2022/sp/sources/userspace/sp_task/main.cpp:70
}
    8408:	e28bd000 	add	sp, fp, #0
    840c:	e49db004 	pop	{fp}		; (ldr fp, [sp], #4)
    8410:	e12fff1e 	bx	lr
    8414:	0000b47c 	andeq	fp, r0, ip, ror r4
    8418:	0000b544 	andeq	fp, r0, r4, asr #10
    841c:	0000b60c 	andeq	fp, r0, ip, lsl #12
    8420:	0000b6d4 	ldrdeq	fp, [r0], -r4
    8424:	0000b79c 	muleq	r0, ip, r7

00008428 <_Z12checkForStopPcj>:
_Z12checkForStopPcj():
/home/schenkj/os2022/sp/sources/userspace/sp_task/main.cpp:73

//check char* if there is stop in it
bool checkForStop(char* buffer, uint32_t size){
    8428:	e52db004 	push	{fp}		; (str fp, [sp, #-4]!)
    842c:	e28db000 	add	fp, sp, #0
    8430:	e24dd014 	sub	sp, sp, #20
    8434:	e50b0010 	str	r0, [fp, #-16]
    8438:	e50b1014 	str	r1, [fp, #-20]	; 0xffffffec
/home/schenkj/os2022/sp/sources/userspace/sp_task/main.cpp:74
	for(uint32_t j = 0; j < size-4; j++){
    843c:	e3a03000 	mov	r3, #0
    8440:	e50b3008 	str	r3, [fp, #-8]
/home/schenkj/os2022/sp/sources/userspace/sp_task/main.cpp:74 (discriminator 1)
    8444:	e51b3014 	ldr	r3, [fp, #-20]	; 0xffffffec
    8448:	e2433004 	sub	r3, r3, #4
    844c:	e51b2008 	ldr	r2, [fp, #-8]
    8450:	e1520003 	cmp	r2, r3
    8454:	2a000020 	bcs	84dc <_Z12checkForStopPcj+0xb4>
/home/schenkj/os2022/sp/sources/userspace/sp_task/main.cpp:75
		if(buffer[j] == 's' && buffer[j+1] == 't' && buffer[j+2] == 'o' && buffer[j+3] == 'p')
    8458:	e51b2010 	ldr	r2, [fp, #-16]
    845c:	e51b3008 	ldr	r3, [fp, #-8]
    8460:	e0823003 	add	r3, r2, r3
    8464:	e5d33000 	ldrb	r3, [r3]
    8468:	e3530073 	cmp	r3, #115	; 0x73
    846c:	1a000016 	bne	84cc <_Z12checkForStopPcj+0xa4>
/home/schenkj/os2022/sp/sources/userspace/sp_task/main.cpp:75 (discriminator 1)
    8470:	e51b3008 	ldr	r3, [fp, #-8]
    8474:	e2833001 	add	r3, r3, #1
    8478:	e51b2010 	ldr	r2, [fp, #-16]
    847c:	e0823003 	add	r3, r2, r3
    8480:	e5d33000 	ldrb	r3, [r3]
    8484:	e3530074 	cmp	r3, #116	; 0x74
    8488:	1a00000f 	bne	84cc <_Z12checkForStopPcj+0xa4>
/home/schenkj/os2022/sp/sources/userspace/sp_task/main.cpp:75 (discriminator 2)
    848c:	e51b3008 	ldr	r3, [fp, #-8]
    8490:	e2833002 	add	r3, r3, #2
    8494:	e51b2010 	ldr	r2, [fp, #-16]
    8498:	e0823003 	add	r3, r2, r3
    849c:	e5d33000 	ldrb	r3, [r3]
    84a0:	e353006f 	cmp	r3, #111	; 0x6f
    84a4:	1a000008 	bne	84cc <_Z12checkForStopPcj+0xa4>
/home/schenkj/os2022/sp/sources/userspace/sp_task/main.cpp:75 (discriminator 3)
    84a8:	e51b3008 	ldr	r3, [fp, #-8]
    84ac:	e2833003 	add	r3, r3, #3
    84b0:	e51b2010 	ldr	r2, [fp, #-16]
    84b4:	e0823003 	add	r3, r2, r3
    84b8:	e5d33000 	ldrb	r3, [r3]
    84bc:	e3530070 	cmp	r3, #112	; 0x70
    84c0:	1a000001 	bne	84cc <_Z12checkForStopPcj+0xa4>
/home/schenkj/os2022/sp/sources/userspace/sp_task/main.cpp:76
			return true;
    84c4:	e3a03001 	mov	r3, #1
    84c8:	ea000004 	b	84e0 <_Z12checkForStopPcj+0xb8>
/home/schenkj/os2022/sp/sources/userspace/sp_task/main.cpp:74 (discriminator 2)
	for(uint32_t j = 0; j < size-4; j++){
    84cc:	e51b3008 	ldr	r3, [fp, #-8]
    84d0:	e2833001 	add	r3, r3, #1
    84d4:	e50b3008 	str	r3, [fp, #-8]
    84d8:	eaffffd9 	b	8444 <_Z12checkForStopPcj+0x1c>
/home/schenkj/os2022/sp/sources/userspace/sp_task/main.cpp:78
	}
	return false;
    84dc:	e3a03000 	mov	r3, #0
/home/schenkj/os2022/sp/sources/userspace/sp_task/main.cpp:79
}
    84e0:	e1a00003 	mov	r0, r3
    84e4:	e28bd000 	add	sp, fp, #0
    84e8:	e49db004 	pop	{fp}		; (ldr fp, [sp], #4)
    84ec:	e12fff1e 	bx	lr

000084f0 <_Z10console_injb>:
_Z10console_injb():
/home/schenkj/os2022/sp/sources/userspace/sp_task/main.cpp:82

//read line - with writing what was written back into console and check for stop
void console_in(uint32_t size = 32, bool block = true){
    84f0:	e92d4800 	push	{fp, lr}
    84f4:	e28db004 	add	fp, sp, #4
    84f8:	e24dd010 	sub	sp, sp, #16
    84fc:	e50b0010 	str	r0, [fp, #-16]
    8500:	e1a03001 	mov	r3, r1
    8504:	e54b3011 	strb	r3, [fp, #-17]	; 0xffffffef
/home/schenkj/os2022/sp/sources/userspace/sp_task/main.cpp:84
	uint32_t len;
	bzero(readValue, 32);
    8508:	e3a01020 	mov	r1, #32
    850c:	e59f0088 	ldr	r0, [pc, #136]	; 859c <_Z10console_injb+0xac>
    8510:	eb000950 	bl	aa58 <_Z5bzeroPvi>
/home/schenkj/os2022/sp/sources/userspace/sp_task/main.cpp:86
    //read buffer
    len = reader.readLine(readValue, uartFile, block);
    8514:	e59f3084 	ldr	r3, [pc, #132]	; 85a0 <_Z10console_injb+0xb0>
    8518:	e5932000 	ldr	r2, [r3]
    851c:	e55b3011 	ldrb	r3, [fp, #-17]	; 0xffffffef
    8520:	e59f1074 	ldr	r1, [pc, #116]	; 859c <_Z10console_injb+0xac>
    8524:	e59f0078 	ldr	r0, [pc, #120]	; 85a4 <_Z10console_injb+0xb4>
    8528:	eb00098f 	bl	ab6c <_ZN10Read_Utils8readLineEPcjb>
    852c:	e50b0008 	str	r0, [fp, #-8]
/home/schenkj/os2022/sp/sources/userspace/sp_task/main.cpp:89
    //write what has been read
	//write(uartFile, "You wrote: ", 11);
	write(uartFile, readValue, len);
    8530:	e59f3068 	ldr	r3, [pc, #104]	; 85a0 <_Z10console_injb+0xb0>
    8534:	e5933000 	ldr	r3, [r3]
    8538:	e51b2008 	ldr	r2, [fp, #-8]
    853c:	e59f1058 	ldr	r1, [pc, #88]	; 859c <_Z10console_injb+0xac>
    8540:	e1a00003 	mov	r0, r3
    8544:	eb0005c7 	bl	9c68 <_Z5writejPKcj>
/home/schenkj/os2022/sp/sources/userspace/sp_task/main.cpp:90
	if(len>0){
    8548:	e51b3008 	ldr	r3, [fp, #-8]
    854c:	e3530000 	cmp	r3, #0
    8550:	0a000005 	beq	856c <_Z10console_injb+0x7c>
/home/schenkj/os2022/sp/sources/userspace/sp_task/main.cpp:92
        //if end line write new line
	    write(uartFile, "\n", 1);
    8554:	e59f3044 	ldr	r3, [pc, #68]	; 85a0 <_Z10console_injb+0xb0>
    8558:	e5933000 	ldr	r3, [r3]
    855c:	e3a02001 	mov	r2, #1
    8560:	e59f1040 	ldr	r1, [pc, #64]	; 85a8 <_Z10console_injb+0xb8>
    8564:	e1a00003 	mov	r0, r3
    8568:	eb0005be 	bl	9c68 <_Z5writejPKcj>
/home/schenkj/os2022/sp/sources/userspace/sp_task/main.cpp:94
	}
	if(checkForStop(readValue, 32))stop=true;
    856c:	e3a01020 	mov	r1, #32
    8570:	e59f0024 	ldr	r0, [pc, #36]	; 859c <_Z10console_injb+0xac>
    8574:	ebffffab 	bl	8428 <_Z12checkForStopPcj>
    8578:	e1a03000 	mov	r3, r0
    857c:	e3530000 	cmp	r3, #0
    8580:	0a000002 	beq	8590 <_Z10console_injb+0xa0>
/home/schenkj/os2022/sp/sources/userspace/sp_task/main.cpp:94 (discriminator 1)
    8584:	e59f3020 	ldr	r3, [pc, #32]	; 85ac <_Z10console_injb+0xbc>
    8588:	e3a02001 	mov	r2, #1
    858c:	e5c32000 	strb	r2, [r3]
/home/schenkj/os2022/sp/sources/userspace/sp_task/main.cpp:95
}
    8590:	e320f000 	nop	{0}
    8594:	e24bd004 	sub	sp, fp, #4
    8598:	e8bd8800 	pop	{fp, pc}
    859c:	0000b86c 	andeq	fp, r0, ip, ror #16
    85a0:	0000b914 	andeq	fp, r0, r4, lsl r9
    85a4:	0000b88c 	andeq	fp, r0, ip, lsl #17
    85a8:	0000b1e4 	andeq	fp, r0, r4, ror #3
    85ac:	0000b868 	andeq	fp, r0, r8, ror #16

000085b0 <_Z8get_sizePc>:
_Z8get_sizePc():
/home/schenkj/os2022/sp/sources/userspace/sp_task/main.cpp:98

//get size of given char*
uint32_t get_size(char* s) {	//size of char*
    85b0:	e52db004 	push	{fp}		; (str fp, [sp, #-4]!)
    85b4:	e28db000 	add	fp, sp, #0
    85b8:	e24dd014 	sub	sp, sp, #20
    85bc:	e50b0010 	str	r0, [fp, #-16]
/home/schenkj/os2022/sp/sources/userspace/sp_task/main.cpp:100
	char* t;
	for (t = s; *t != '\0'; t++)
    85c0:	e51b3010 	ldr	r3, [fp, #-16]
    85c4:	e50b3008 	str	r3, [fp, #-8]
/home/schenkj/os2022/sp/sources/userspace/sp_task/main.cpp:100 (discriminator 3)
    85c8:	e51b3008 	ldr	r3, [fp, #-8]
    85cc:	e5d33000 	ldrb	r3, [r3]
    85d0:	e3530000 	cmp	r3, #0
    85d4:	0a000003 	beq	85e8 <_Z8get_sizePc+0x38>
/home/schenkj/os2022/sp/sources/userspace/sp_task/main.cpp:100 (discriminator 2)
    85d8:	e51b3008 	ldr	r3, [fp, #-8]
    85dc:	e2833001 	add	r3, r3, #1
    85e0:	e50b3008 	str	r3, [fp, #-8]
    85e4:	eafffff7 	b	85c8 <_Z8get_sizePc+0x18>
/home/schenkj/os2022/sp/sources/userspace/sp_task/main.cpp:102
		;
	return t - s;
    85e8:	e51b2008 	ldr	r2, [fp, #-8]
    85ec:	e51b3010 	ldr	r3, [fp, #-16]
    85f0:	e0423003 	sub	r3, r2, r3
/home/schenkj/os2022/sp/sources/userspace/sp_task/main.cpp:103
}
    85f4:	e1a00003 	mov	r0, r3
    85f8:	e28bd000 	add	sp, fp, #0
    85fc:	e49db004 	pop	{fp}		; (ldr fp, [sp], #4)
    8600:	e12fff1e 	bx	lr

00008604 <_Z11check_paramPc>:
_Z11check_paramPc():
/home/schenkj/os2022/sp/sources/userspace/sp_task/main.cpp:106

//check if char* is float, int or string
uint32_t check_param(char* param) { //0=str, 1=int, 2=float
    8604:	e92d4800 	push	{fp, lr}
    8608:	e28db004 	add	fp, sp, #4
    860c:	e24dd018 	sub	sp, sp, #24
    8610:	e50b0018 	str	r0, [fp, #-24]	; 0xffffffe8
/home/schenkj/os2022/sp/sources/userspace/sp_task/main.cpp:107
	int size = get_size(param);
    8614:	e51b0018 	ldr	r0, [fp, #-24]	; 0xffffffe8
    8618:	ebffffe4 	bl	85b0 <_Z8get_sizePc>
    861c:	e1a03000 	mov	r3, r0
    8620:	e50b3010 	str	r3, [fp, #-16]
/home/schenkj/os2022/sp/sources/userspace/sp_task/main.cpp:108
	bool whole = true;
    8624:	e3a03001 	mov	r3, #1
    8628:	e54b3005 	strb	r3, [fp, #-5]
/home/schenkj/os2022/sp/sources/userspace/sp_task/main.cpp:110
	char a;
	for (int i = 0; i < size; i++) {
    862c:	e3a03000 	mov	r3, #0
    8630:	e50b300c 	str	r3, [fp, #-12]
/home/schenkj/os2022/sp/sources/userspace/sp_task/main.cpp:110 (discriminator 1)
    8634:	e51b200c 	ldr	r2, [fp, #-12]
    8638:	e51b3010 	ldr	r3, [fp, #-16]
    863c:	e1520003 	cmp	r2, r3
    8640:	aa000029 	bge	86ec <_Z11check_paramPc+0xe8>
/home/schenkj/os2022/sp/sources/userspace/sp_task/main.cpp:111
		a = param[i];
    8644:	e51b300c 	ldr	r3, [fp, #-12]
    8648:	e51b2018 	ldr	r2, [fp, #-24]	; 0xffffffe8
    864c:	e0823003 	add	r3, r2, r3
    8650:	e5d33000 	ldrb	r3, [r3]
    8654:	e54b3011 	strb	r3, [fp, #-17]	; 0xffffffef
/home/schenkj/os2022/sp/sources/userspace/sp_task/main.cpp:113
		//end of line means end of string
		if (a == '\n') {
    8658:	e55b3011 	ldrb	r3, [fp, #-17]	; 0xffffffef
    865c:	e353000a 	cmp	r3, #10
    8660:	0a000020 	beq	86e8 <_Z11check_paramPc+0xe4>
/home/schenkj/os2022/sp/sources/userspace/sp_task/main.cpp:117
			break;
		}
		//if there is . or , it is not a whole number, if it already wasnt I found 2nd . or , -> return not int nor float
		if (a == '.' || a == ',') {
    8664:	e55b3011 	ldrb	r3, [fp, #-17]	; 0xffffffef
    8668:	e353002e 	cmp	r3, #46	; 0x2e
    866c:	0a000002 	beq	867c <_Z11check_paramPc+0x78>
/home/schenkj/os2022/sp/sources/userspace/sp_task/main.cpp:117 (discriminator 1)
    8670:	e55b3011 	ldrb	r3, [fp, #-17]	; 0xffffffef
    8674:	e353002c 	cmp	r3, #44	; 0x2c
    8678:	1a000008 	bne	86a0 <_Z11check_paramPc+0x9c>
/home/schenkj/os2022/sp/sources/userspace/sp_task/main.cpp:118
			if (!whole)
    867c:	e55b3005 	ldrb	r3, [fp, #-5]
    8680:	e2233001 	eor	r3, r3, #1
    8684:	e6ef3073 	uxtb	r3, r3
    8688:	e3530000 	cmp	r3, #0
    868c:	0a000001 	beq	8698 <_Z11check_paramPc+0x94>
/home/schenkj/os2022/sp/sources/userspace/sp_task/main.cpp:119
				return 0;
    8690:	e3a03000 	mov	r3, #0
    8694:	ea00001a 	b	8704 <_Z11check_paramPc+0x100>
/home/schenkj/os2022/sp/sources/userspace/sp_task/main.cpp:120
			whole = false;
    8698:	e3a03000 	mov	r3, #0
    869c:	e54b3005 	strb	r3, [fp, #-5]
/home/schenkj/os2022/sp/sources/userspace/sp_task/main.cpp:123
		}
		//if character is in range of 0-9 or its . or , - it might be number
		if (!((a >= '0' && a <= '9') || a == '.' || a == ','))
    86a0:	e55b3011 	ldrb	r3, [fp, #-17]	; 0xffffffef
    86a4:	e353002f 	cmp	r3, #47	; 0x2f
    86a8:	9a000002 	bls	86b8 <_Z11check_paramPc+0xb4>
/home/schenkj/os2022/sp/sources/userspace/sp_task/main.cpp:123 (discriminator 2)
    86ac:	e55b3011 	ldrb	r3, [fp, #-17]	; 0xffffffef
    86b0:	e3530039 	cmp	r3, #57	; 0x39
    86b4:	9a000007 	bls	86d8 <_Z11check_paramPc+0xd4>
/home/schenkj/os2022/sp/sources/userspace/sp_task/main.cpp:123 (discriminator 3)
    86b8:	e55b3011 	ldrb	r3, [fp, #-17]	; 0xffffffef
    86bc:	e353002e 	cmp	r3, #46	; 0x2e
    86c0:	0a000004 	beq	86d8 <_Z11check_paramPc+0xd4>
/home/schenkj/os2022/sp/sources/userspace/sp_task/main.cpp:123 (discriminator 4)
    86c4:	e55b3011 	ldrb	r3, [fp, #-17]	; 0xffffffef
    86c8:	e353002c 	cmp	r3, #44	; 0x2c
    86cc:	0a000001 	beq	86d8 <_Z11check_paramPc+0xd4>
/home/schenkj/os2022/sp/sources/userspace/sp_task/main.cpp:124
			return 0;
    86d0:	e3a03000 	mov	r3, #0
    86d4:	ea00000a 	b	8704 <_Z11check_paramPc+0x100>
/home/schenkj/os2022/sp/sources/userspace/sp_task/main.cpp:110 (discriminator 2)
	for (int i = 0; i < size; i++) {
    86d8:	e51b300c 	ldr	r3, [fp, #-12]
    86dc:	e2833001 	add	r3, r3, #1
    86e0:	e50b300c 	str	r3, [fp, #-12]
    86e4:	eaffffd2 	b	8634 <_Z11check_paramPc+0x30>
/home/schenkj/os2022/sp/sources/userspace/sp_task/main.cpp:114
			break;
    86e8:	e320f000 	nop	{0}
/home/schenkj/os2022/sp/sources/userspace/sp_task/main.cpp:126
	}
	if (whole)return 1;
    86ec:	e55b3005 	ldrb	r3, [fp, #-5]
    86f0:	e3530000 	cmp	r3, #0
    86f4:	0a000001 	beq	8700 <_Z11check_paramPc+0xfc>
/home/schenkj/os2022/sp/sources/userspace/sp_task/main.cpp:126 (discriminator 1)
    86f8:	e3a03001 	mov	r3, #1
    86fc:	ea000000 	b	8704 <_Z11check_paramPc+0x100>
/home/schenkj/os2022/sp/sources/userspace/sp_task/main.cpp:127
	else return 2;
    8700:	e3a03002 	mov	r3, #2
/home/schenkj/os2022/sp/sources/userspace/sp_task/main.cpp:128
}
    8704:	e1a00003 	mov	r0, r3
    8708:	e24bd004 	sub	sp, fp, #4
    870c:	e8bd8800 	pop	{fp, pc}

00008710 <_Z10read_paramv>:
_Z10read_paramv():
/home/schenkj/os2022/sp/sources/userspace/sp_task/main.cpp:132


//read first two parameters
void read_param() {
    8710:	e92d4800 	push	{fp, lr}
    8714:	e28db004 	add	fp, sp, #4
    8718:	e24dd020 	sub	sp, sp, #32
/home/schenkj/os2022/sp/sources/userspace/sp_task/main.cpp:133
    char* param =  reinterpret_cast<char*>(malloc(32));
    871c:	e3a00020 	mov	r0, #32
    8720:	eb000625 	bl	9fbc <_Z6mallocj>
    8724:	e50b0008 	str	r0, [fp, #-8]
/home/schenkj/os2022/sp/sources/userspace/sp_task/main.cpp:136
	while (true) {
		//read first parameter - delta
		bzero(readValue, 32);
    8728:	e3a01020 	mov	r1, #32
    872c:	e59f0264 	ldr	r0, [pc, #612]	; 8998 <_Z10read_paramv+0x288>
    8730:	eb0008c8 	bl	aa58 <_Z5bzeroPvi>
/home/schenkj/os2022/sp/sources/userspace/sp_task/main.cpp:137
		console_in();
    8734:	e3a01001 	mov	r1, #1
    8738:	e3a00020 	mov	r0, #32
    873c:	ebffff6b 	bl	84f0 <_Z10console_injb>
/home/schenkj/os2022/sp/sources/userspace/sp_task/main.cpp:138
		uint32_t b = check_param(readValue);
    8740:	e59f0250 	ldr	r0, [pc, #592]	; 8998 <_Z10read_paramv+0x288>
    8744:	ebffffae 	bl	8604 <_Z11check_paramPc>
    8748:	e50b000c 	str	r0, [fp, #-12]
/home/schenkj/os2022/sp/sources/userspace/sp_task/main.cpp:141

		//check if it is number
		if (b == 1 || b == 2) {			
    874c:	e51b300c 	ldr	r3, [fp, #-12]
    8750:	e3530001 	cmp	r3, #1
    8754:	0a000002 	beq	8764 <_Z10read_paramv+0x54>
/home/schenkj/os2022/sp/sources/userspace/sp_task/main.cpp:141 (discriminator 1)
    8758:	e51b300c 	ldr	r3, [fp, #-12]
    875c:	e3530002 	cmp	r3, #2
    8760:	1a000036 	bne	8840 <_Z10read_paramv+0x130>
/home/schenkj/os2022/sp/sources/userspace/sp_task/main.cpp:142
			DELTA = atoi(readValue);
    8764:	e59f022c 	ldr	r0, [pc, #556]	; 8998 <_Z10read_paramv+0x288>
    8768:	eb000681 	bl	a174 <_Z4atoiPKc>
    876c:	e1a03000 	mov	r3, r0
    8770:	e1a02003 	mov	r2, r3
    8774:	e59f3220 	ldr	r3, [pc, #544]	; 899c <_Z10read_paramv+0x28c>
    8778:	e5832000 	str	r2, [r3]
/home/schenkj/os2022/sp/sources/userspace/sp_task/main.cpp:143
			if(b==2) DELTA = DELTA / 10;
    877c:	e51b300c 	ldr	r3, [fp, #-12]
    8780:	e3530002 	cmp	r3, #2
    8784:	1a000006 	bne	87a4 <_Z10read_paramv+0x94>
/home/schenkj/os2022/sp/sources/userspace/sp_task/main.cpp:143 (discriminator 1)
    8788:	e59f320c 	ldr	r3, [pc, #524]	; 899c <_Z10read_paramv+0x28c>
    878c:	e5933000 	ldr	r3, [r3]
    8790:	e59f2208 	ldr	r2, [pc, #520]	; 89a0 <_Z10read_paramv+0x290>
    8794:	e0832392 	umull	r2, r3, r2, r3
    8798:	e1a031a3 	lsr	r3, r3, #3
    879c:	e59f21f8 	ldr	r2, [pc, #504]	; 899c <_Z10read_paramv+0x28c>
    87a0:	e5823000 	str	r3, [r2]
/home/schenkj/os2022/sp/sources/userspace/sp_task/main.cpp:145
			//set DERIV_CONST so its not counted multiple times
			DERIV_CONST = ((DELTA * 60.0 * 1.0) / (24.0 * 60.0 * 60.0));
    87a4:	e59f31f0 	ldr	r3, [pc, #496]	; 899c <_Z10read_paramv+0x28c>
    87a8:	e5933000 	ldr	r3, [r3]
    87ac:	ee073a90 	vmov	s15, r3
    87b0:	eeb87b67 	vcvt.f64.u32	d7, s15
    87b4:	ed9f6b73 	vldr	d6, [pc, #460]	; 8988 <_Z10read_paramv+0x278>
    87b8:	ee276b06 	vmul.f64	d6, d7, d6
    87bc:	ed9f5b73 	vldr	d5, [pc, #460]	; 8990 <_Z10read_paramv+0x280>
    87c0:	ee867b05 	vdiv.f64	d7, d6, d5
    87c4:	eef77bc7 	vcvt.f32.f64	s15, d7
    87c8:	e59f31d4 	ldr	r3, [pc, #468]	; 89a4 <_Z10read_paramv+0x294>
    87cc:	edc37a00 	vstr	s15, [r3]
/home/schenkj/os2022/sp/sources/userspace/sp_task/main.cpp:148

			//print it out
			char* deltaChar =  reinterpret_cast<char*>(malloc(sizeof(uint32_t)));
    87d0:	e3a00004 	mov	r0, #4
    87d4:	eb0005f8 	bl	9fbc <_Z6mallocj>
    87d8:	e50b0014 	str	r0, [fp, #-20]	; 0xffffffec
/home/schenkj/os2022/sp/sources/userspace/sp_task/main.cpp:149
			itoa(DELTA, deltaChar, 10);
    87dc:	e59f31b8 	ldr	r3, [pc, #440]	; 899c <_Z10read_paramv+0x28c>
    87e0:	e5933000 	ldr	r3, [r3]
    87e4:	e3a0200a 	mov	r2, #10
    87e8:	e51b1014 	ldr	r1, [fp, #-20]	; 0xffffffec
    87ec:	e1a00003 	mov	r0, r3
    87f0:	eb000602 	bl	a000 <_Z4itoajPcj>
/home/schenkj/os2022/sp/sources/userspace/sp_task/main.cpp:158
			strcat(print_out, reinterpret_cast<const char*>("OK, krokovani "));
			strcat(print_out, reinterpret_cast<const char*>(deltaChar));
			strcat(print_out, reinterpret_cast<const char*>(" min.\n"));
			write(uartFile, print_out, 22 + sizeof(uint32_t));*/

			write(uartFile, "OK, krokovani ", 14);
    87f4:	e59f31ac 	ldr	r3, [pc, #428]	; 89a8 <_Z10read_paramv+0x298>
    87f8:	e5933000 	ldr	r3, [r3]
    87fc:	e3a0200e 	mov	r2, #14
    8800:	e59f11a4 	ldr	r1, [pc, #420]	; 89ac <_Z10read_paramv+0x29c>
    8804:	e1a00003 	mov	r0, r3
    8808:	eb000516 	bl	9c68 <_Z5writejPKcj>
/home/schenkj/os2022/sp/sources/userspace/sp_task/main.cpp:159
			write(uartFile, deltaChar, 16);
    880c:	e59f3194 	ldr	r3, [pc, #404]	; 89a8 <_Z10read_paramv+0x298>
    8810:	e5933000 	ldr	r3, [r3]
    8814:	e3a02010 	mov	r2, #16
    8818:	e51b1014 	ldr	r1, [fp, #-20]	; 0xffffffec
    881c:	e1a00003 	mov	r0, r3
    8820:	eb000510 	bl	9c68 <_Z5writejPKcj>
/home/schenkj/os2022/sp/sources/userspace/sp_task/main.cpp:160
			write(uartFile, " min.\n", 6);
    8824:	e59f317c 	ldr	r3, [pc, #380]	; 89a8 <_Z10read_paramv+0x298>
    8828:	e5933000 	ldr	r3, [r3]
    882c:	e3a02006 	mov	r2, #6
    8830:	e59f1178 	ldr	r1, [pc, #376]	; 89b0 <_Z10read_paramv+0x2a0>
    8834:	e1a00003 	mov	r0, r3
    8838:	eb00050a 	bl	9c68 <_Z5writejPKcj>
/home/schenkj/os2022/sp/sources/userspace/sp_task/main.cpp:163

            
			break;
    883c:	ea000008 	b	8864 <_Z10read_paramv+0x154>
/home/schenkj/os2022/sp/sources/userspace/sp_task/main.cpp:167
		}
		else {
			//there was string instead of int or float
			const char* print_out = "Zadejte cele cislo prosim.\n";
    8840:	e59f316c 	ldr	r3, [pc, #364]	; 89b4 <_Z10read_paramv+0x2a4>
    8844:	e50b3010 	str	r3, [fp, #-16]
/home/schenkj/os2022/sp/sources/userspace/sp_task/main.cpp:168
            write(uartFile, print_out, 28);
    8848:	e59f3158 	ldr	r3, [pc, #344]	; 89a8 <_Z10read_paramv+0x298>
    884c:	e5933000 	ldr	r3, [r3]
    8850:	e3a0201c 	mov	r2, #28
    8854:	e51b1010 	ldr	r1, [fp, #-16]
    8858:	e1a00003 	mov	r0, r3
    885c:	eb000501 	bl	9c68 <_Z5writejPKcj>
/home/schenkj/os2022/sp/sources/userspace/sp_task/main.cpp:170
		}
	}
    8860:	eaffffb0 	b	8728 <_Z10read_paramv+0x18>
/home/schenkj/os2022/sp/sources/userspace/sp_task/main.cpp:173
	while (true) {
		//read second parameter - prediction
		bzero(readValue, 32);
    8864:	e3a01020 	mov	r1, #32
    8868:	e59f0128 	ldr	r0, [pc, #296]	; 8998 <_Z10read_paramv+0x288>
    886c:	eb000879 	bl	aa58 <_Z5bzeroPvi>
/home/schenkj/os2022/sp/sources/userspace/sp_task/main.cpp:174
		console_in();
    8870:	e3a01001 	mov	r1, #1
    8874:	e3a00020 	mov	r0, #32
    8878:	ebffff1c 	bl	84f0 <_Z10console_injb>
/home/schenkj/os2022/sp/sources/userspace/sp_task/main.cpp:175
		uint32_t b = check_param(readValue);		
    887c:	e59f0114 	ldr	r0, [pc, #276]	; 8998 <_Z10read_paramv+0x288>
    8880:	ebffff5f 	bl	8604 <_Z11check_paramPc>
    8884:	e50b0018 	str	r0, [fp, #-24]	; 0xffffffe8
/home/schenkj/os2022/sp/sources/userspace/sp_task/main.cpp:178

		//check if it is number
		if (b == 1 || b == 2) {
    8888:	e51b3018 	ldr	r3, [fp, #-24]	; 0xffffffe8
    888c:	e3530001 	cmp	r3, #1
    8890:	0a000002 	beq	88a0 <_Z10read_paramv+0x190>
/home/schenkj/os2022/sp/sources/userspace/sp_task/main.cpp:178 (discriminator 1)
    8894:	e51b3018 	ldr	r3, [fp, #-24]	; 0xffffffe8
    8898:	e3530002 	cmp	r3, #2
    889c:	1a00002e 	bne	895c <_Z10read_paramv+0x24c>
/home/schenkj/os2022/sp/sources/userspace/sp_task/main.cpp:179
			PRED = atoi(readValue);
    88a0:	e59f00f0 	ldr	r0, [pc, #240]	; 8998 <_Z10read_paramv+0x288>
    88a4:	eb000632 	bl	a174 <_Z4atoiPKc>
    88a8:	e1a03000 	mov	r3, r0
    88ac:	e1a02003 	mov	r2, r3
    88b0:	e59f3100 	ldr	r3, [pc, #256]	; 89b8 <_Z10read_paramv+0x2a8>
    88b4:	e5832000 	str	r2, [r3]
/home/schenkj/os2022/sp/sources/userspace/sp_task/main.cpp:180
			if(b == 2) PRED = PRED / 10;
    88b8:	e51b3018 	ldr	r3, [fp, #-24]	; 0xffffffe8
    88bc:	e3530002 	cmp	r3, #2
    88c0:	1a000006 	bne	88e0 <_Z10read_paramv+0x1d0>
/home/schenkj/os2022/sp/sources/userspace/sp_task/main.cpp:180 (discriminator 1)
    88c4:	e59f30ec 	ldr	r3, [pc, #236]	; 89b8 <_Z10read_paramv+0x2a8>
    88c8:	e5933000 	ldr	r3, [r3]
    88cc:	e59f20cc 	ldr	r2, [pc, #204]	; 89a0 <_Z10read_paramv+0x290>
    88d0:	e0832392 	umull	r2, r3, r2, r3
    88d4:	e1a031a3 	lsr	r3, r3, #3
    88d8:	e59f20d8 	ldr	r2, [pc, #216]	; 89b8 <_Z10read_paramv+0x2a8>
    88dc:	e5823000 	str	r3, [r2]
/home/schenkj/os2022/sp/sources/userspace/sp_task/main.cpp:182
			//write to console what came
			char* predChar = reinterpret_cast<char*>(malloc(sizeof(uint32_t)));
    88e0:	e3a00004 	mov	r0, #4
    88e4:	eb0005b4 	bl	9fbc <_Z6mallocj>
    88e8:	e50b0020 	str	r0, [fp, #-32]	; 0xffffffe0
/home/schenkj/os2022/sp/sources/userspace/sp_task/main.cpp:183
			bzero(predChar, sizeof(uint32_t));
    88ec:	e3a01004 	mov	r1, #4
    88f0:	e51b0020 	ldr	r0, [fp, #-32]	; 0xffffffe0
    88f4:	eb000857 	bl	aa58 <_Z5bzeroPvi>
/home/schenkj/os2022/sp/sources/userspace/sp_task/main.cpp:184
			itoa(PRED, predChar, 10);
    88f8:	e59f30b8 	ldr	r3, [pc, #184]	; 89b8 <_Z10read_paramv+0x2a8>
    88fc:	e5933000 	ldr	r3, [r3]
    8900:	e3a0200a 	mov	r2, #10
    8904:	e51b1020 	ldr	r1, [fp, #-32]	; 0xffffffe0
    8908:	e1a00003 	mov	r0, r3
    890c:	eb0005bb 	bl	a000 <_Z4itoajPcj>
/home/schenkj/os2022/sp/sources/userspace/sp_task/main.cpp:194
			strcat(print_out, reinterpret_cast<const char*>(predChar));
			strcat(print_out, reinterpret_cast<const char*>(" min.\n"));
            write(uartFile, print_out, 22 + sizeof(uint32_t));*/

			//write it out
			write(uartFile, "OK, predikce je ", 16);
    8910:	e59f3090 	ldr	r3, [pc, #144]	; 89a8 <_Z10read_paramv+0x298>
    8914:	e5933000 	ldr	r3, [r3]
    8918:	e3a02010 	mov	r2, #16
    891c:	e59f1098 	ldr	r1, [pc, #152]	; 89bc <_Z10read_paramv+0x2ac>
    8920:	e1a00003 	mov	r0, r3
    8924:	eb0004cf 	bl	9c68 <_Z5writejPKcj>
/home/schenkj/os2022/sp/sources/userspace/sp_task/main.cpp:195
			write(uartFile, predChar, 16);
    8928:	e59f3078 	ldr	r3, [pc, #120]	; 89a8 <_Z10read_paramv+0x298>
    892c:	e5933000 	ldr	r3, [r3]
    8930:	e3a02010 	mov	r2, #16
    8934:	e51b1020 	ldr	r1, [fp, #-32]	; 0xffffffe0
    8938:	e1a00003 	mov	r0, r3
    893c:	eb0004c9 	bl	9c68 <_Z5writejPKcj>
/home/schenkj/os2022/sp/sources/userspace/sp_task/main.cpp:196
			write(uartFile, " min.\n", 6);
    8940:	e59f3060 	ldr	r3, [pc, #96]	; 89a8 <_Z10read_paramv+0x298>
    8944:	e5933000 	ldr	r3, [r3]
    8948:	e3a02006 	mov	r2, #6
    894c:	e59f105c 	ldr	r1, [pc, #92]	; 89b0 <_Z10read_paramv+0x2a0>
    8950:	e1a00003 	mov	r0, r3
    8954:	eb0004c3 	bl	9c68 <_Z5writejPKcj>
/home/schenkj/os2022/sp/sources/userspace/sp_task/main.cpp:198

			return;
    8958:	ea000008 	b	8980 <_Z10read_paramv+0x270>
/home/schenkj/os2022/sp/sources/userspace/sp_task/main.cpp:202
		}
		else {
			//there was no number on imput, repeat
			const char* print_out = "Zadejte cele cislo prosim.\n";
    895c:	e59f3050 	ldr	r3, [pc, #80]	; 89b4 <_Z10read_paramv+0x2a4>
    8960:	e50b301c 	str	r3, [fp, #-28]	; 0xffffffe4
/home/schenkj/os2022/sp/sources/userspace/sp_task/main.cpp:203
            write(uartFile, print_out, 28);
    8964:	e59f303c 	ldr	r3, [pc, #60]	; 89a8 <_Z10read_paramv+0x298>
    8968:	e5933000 	ldr	r3, [r3]
    896c:	e3a0201c 	mov	r2, #28
    8970:	e51b101c 	ldr	r1, [fp, #-28]	; 0xffffffe4
    8974:	e1a00003 	mov	r0, r3
    8978:	eb0004ba 	bl	9c68 <_Z5writejPKcj>
/home/schenkj/os2022/sp/sources/userspace/sp_task/main.cpp:205
		}
	}
    897c:	eaffffb8 	b	8864 <_Z10read_paramv+0x154>
/home/schenkj/os2022/sp/sources/userspace/sp_task/main.cpp:206
}
    8980:	e24bd004 	sub	sp, fp, #4
    8984:	e8bd8800 	pop	{fp, pc}
    8988:	00000000 	andeq	r0, r0, r0
    898c:	404e0000 	submi	r0, lr, r0
    8990:	00000000 	andeq	r0, r0, r0
    8994:	40f51800 	rscsmi	r1, r5, r0, lsl #16
    8998:	0000b86c 	andeq	fp, r0, ip, ror #16
    899c:	0000b468 	andeq	fp, r0, r8, ror #8
    89a0:	cccccccd 	stclgt	12, cr12, [ip], {205}	; 0xcd
    89a4:	0000b470 	andeq	fp, r0, r0, ror r4
    89a8:	0000b914 	andeq	fp, r0, r4, lsl r9
    89ac:	0000b1e8 	andeq	fp, r0, r8, ror #3
    89b0:	0000b1f8 	strdeq	fp, [r0], -r8
    89b4:	0000b200 	andeq	fp, r0, r0, lsl #4
    89b8:	0000b46c 	andeq	fp, r0, ip, ror #8
    89bc:	0000b21c 	andeq	fp, r0, ip, lsl r2

000089c0 <_Z10read_inputv>:
_Z10read_inputv():
/home/schenkj/os2022/sp/sources/userspace/sp_task/main.cpp:209

//read new float value
uint32_t read_input() {
    89c0:	e92d4800 	push	{fp, lr}
    89c4:	e28db004 	add	fp, sp, #4
    89c8:	e24dd010 	sub	sp, sp, #16
/home/schenkj/os2022/sp/sources/userspace/sp_task/main.cpp:211
	float input;
	char* param = reinterpret_cast<char*>(malloc(32));
    89cc:	e3a00020 	mov	r0, #32
    89d0:	eb000579 	bl	9fbc <_Z6mallocj>
    89d4:	e50b000c 	str	r0, [fp, #-12]
/home/schenkj/os2022/sp/sources/userspace/sp_task/main.cpp:212
	bzero(readValue, 32);
    89d8:	e3a01020 	mov	r1, #32
    89dc:	e59f0184 	ldr	r0, [pc, #388]	; 8b68 <_Z10read_inputv+0x1a8>
    89e0:	eb00081c 	bl	aa58 <_Z5bzeroPvi>
/home/schenkj/os2022/sp/sources/userspace/sp_task/main.cpp:213
	console_in();
    89e4:	e3a01001 	mov	r1, #1
    89e8:	e3a00020 	mov	r0, #32
    89ec:	ebfffebf 	bl	84f0 <_Z10console_injb>
/home/schenkj/os2022/sp/sources/userspace/sp_task/main.cpp:215

	if (checkForStop(readValue, 32))
    89f0:	e3a01020 	mov	r1, #32
    89f4:	e59f016c 	ldr	r0, [pc, #364]	; 8b68 <_Z10read_inputv+0x1a8>
    89f8:	ebfffe8a 	bl	8428 <_Z12checkForStopPcj>
    89fc:	e1a03000 	mov	r3, r0
    8a00:	e3530000 	cmp	r3, #0
    8a04:	0a000001 	beq	8a10 <_Z10read_inputv+0x50>
/home/schenkj/os2022/sp/sources/userspace/sp_task/main.cpp:216
		return 1;
    8a08:	e3a03001 	mov	r3, #1
    8a0c:	ea000052 	b	8b5c <_Z10read_inputv+0x19c>
/home/schenkj/os2022/sp/sources/userspace/sp_task/main.cpp:217
	else if (readValue == "parameters")
    8a10:	e59f2150 	ldr	r2, [pc, #336]	; 8b68 <_Z10read_inputv+0x1a8>
    8a14:	e59f3150 	ldr	r3, [pc, #336]	; 8b6c <_Z10read_inputv+0x1ac>
    8a18:	e1520003 	cmp	r2, r3
    8a1c:	1a000001 	bne	8a28 <_Z10read_inputv+0x68>
/home/schenkj/os2022/sp/sources/userspace/sp_task/main.cpp:218
		return 2;
    8a20:	e3a03002 	mov	r3, #2
    8a24:	ea00004c 	b	8b5c <_Z10read_inputv+0x19c>
/home/schenkj/os2022/sp/sources/userspace/sp_task/main.cpp:219
	else if (check_param(readValue) == 0){
    8a28:	e59f0138 	ldr	r0, [pc, #312]	; 8b68 <_Z10read_inputv+0x1a8>
    8a2c:	ebfffef4 	bl	8604 <_Z11check_paramPc>
    8a30:	e1a03000 	mov	r3, r0
    8a34:	e3530000 	cmp	r3, #0
    8a38:	03a03001 	moveq	r3, #1
    8a3c:	13a03000 	movne	r3, #0
    8a40:	e6ef3073 	uxtb	r3, r3
    8a44:	e3530000 	cmp	r3, #0
    8a48:	0a000001 	beq	8a54 <_Z10read_inputv+0x94>
/home/schenkj/os2022/sp/sources/userspace/sp_task/main.cpp:220
		return 3;
    8a4c:	e3a03003 	mov	r3, #3
    8a50:	ea000041 	b	8b5c <_Z10read_inputv+0x19c>
/home/schenkj/os2022/sp/sources/userspace/sp_task/main.cpp:223
	}

	input = atof(readValue);
    8a54:	e59f010c 	ldr	r0, [pc, #268]	; 8b68 <_Z10read_inputv+0x1a8>
    8a58:	eb00061e 	bl	a2d8 <_Z4atofPKc>
    8a5c:	ed0b0a04 	vstr	s0, [fp, #-16]
/home/schenkj/os2022/sp/sources/userspace/sp_task/main.cpp:226

	//store new value
	values[val_counter] = input;
    8a60:	e59f3108 	ldr	r3, [pc, #264]	; 8b70 <_Z10read_inputv+0x1b0>
    8a64:	e5932000 	ldr	r2, [r3]
    8a68:	e59f3104 	ldr	r3, [pc, #260]	; 8b74 <_Z10read_inputv+0x1b4>
    8a6c:	e5933000 	ldr	r3, [r3]
    8a70:	e1a03103 	lsl	r3, r3, #2
    8a74:	e0823003 	add	r3, r2, r3
    8a78:	e51b2010 	ldr	r2, [fp, #-16]
    8a7c:	e5832000 	str	r2, [r3]
/home/schenkj/os2022/sp/sources/userspace/sp_task/main.cpp:227
	val_counter++;
    8a80:	e59f30ec 	ldr	r3, [pc, #236]	; 8b74 <_Z10read_inputv+0x1b4>
    8a84:	e5933000 	ldr	r3, [r3]
    8a88:	e2833001 	add	r3, r3, #1
    8a8c:	e59f20e0 	ldr	r2, [pc, #224]	; 8b74 <_Z10read_inputv+0x1b4>
    8a90:	e5823000 	str	r3, [r2]
/home/schenkj/os2022/sp/sources/userspace/sp_task/main.cpp:230

	//expand array for values if needed
	if (val_counter >= val_size) {
    8a94:	e59f30d8 	ldr	r3, [pc, #216]	; 8b74 <_Z10read_inputv+0x1b4>
    8a98:	e5932000 	ldr	r2, [r3]
    8a9c:	e59f30d4 	ldr	r3, [pc, #212]	; 8b78 <_Z10read_inputv+0x1b8>
    8aa0:	e5933000 	ldr	r3, [r3]
    8aa4:	e1520003 	cmp	r2, r3
    8aa8:	3a00002a 	bcc	8b58 <_Z10read_inputv+0x198>
/home/schenkj/os2022/sp/sources/userspace/sp_task/main.cpp:231
		val_size *= 2;
    8aac:	e59f30c4 	ldr	r3, [pc, #196]	; 8b78 <_Z10read_inputv+0x1b8>
    8ab0:	e5933000 	ldr	r3, [r3]
    8ab4:	e1a03083 	lsl	r3, r3, #1
    8ab8:	e59f20b8 	ldr	r2, [pc, #184]	; 8b78 <_Z10read_inputv+0x1b8>
    8abc:	e5823000 	str	r3, [r2]
/home/schenkj/os2022/sp/sources/userspace/sp_task/main.cpp:232
		float* newVal =  reinterpret_cast<float*>(malloc(val_size*sizeof(float)));
    8ac0:	e59f30b0 	ldr	r3, [pc, #176]	; 8b78 <_Z10read_inputv+0x1b8>
    8ac4:	e5933000 	ldr	r3, [r3]
    8ac8:	e1a03103 	lsl	r3, r3, #2
    8acc:	e1a00003 	mov	r0, r3
    8ad0:	eb000539 	bl	9fbc <_Z6mallocj>
    8ad4:	e50b0014 	str	r0, [fp, #-20]	; 0xffffffec
/home/schenkj/os2022/sp/sources/userspace/sp_task/main.cpp:233
		bzero(newVal, val_size*sizeof(float));
    8ad8:	e59f3098 	ldr	r3, [pc, #152]	; 8b78 <_Z10read_inputv+0x1b8>
    8adc:	e5933000 	ldr	r3, [r3]
    8ae0:	e1a03103 	lsl	r3, r3, #2
    8ae4:	e1a01003 	mov	r1, r3
    8ae8:	e51b0014 	ldr	r0, [fp, #-20]	; 0xffffffec
    8aec:	eb0007d9 	bl	aa58 <_Z5bzeroPvi>
/home/schenkj/os2022/sp/sources/userspace/sp_task/main.cpp:234
		for (int i = 0; i < val_size / 2; i++) {
    8af0:	e3a03000 	mov	r3, #0
    8af4:	e50b3008 	str	r3, [fp, #-8]
/home/schenkj/os2022/sp/sources/userspace/sp_task/main.cpp:234 (discriminator 3)
    8af8:	e59f3078 	ldr	r3, [pc, #120]	; 8b78 <_Z10read_inputv+0x1b8>
    8afc:	e5933000 	ldr	r3, [r3]
    8b00:	e1a020a3 	lsr	r2, r3, #1
    8b04:	e51b3008 	ldr	r3, [fp, #-8]
    8b08:	e1520003 	cmp	r2, r3
    8b0c:	9a00000e 	bls	8b4c <_Z10read_inputv+0x18c>
/home/schenkj/os2022/sp/sources/userspace/sp_task/main.cpp:235 (discriminator 2)
			newVal[i] = values[i];
    8b10:	e59f3058 	ldr	r3, [pc, #88]	; 8b70 <_Z10read_inputv+0x1b0>
    8b14:	e5932000 	ldr	r2, [r3]
    8b18:	e51b3008 	ldr	r3, [fp, #-8]
    8b1c:	e1a03103 	lsl	r3, r3, #2
    8b20:	e0822003 	add	r2, r2, r3
    8b24:	e51b3008 	ldr	r3, [fp, #-8]
    8b28:	e1a03103 	lsl	r3, r3, #2
    8b2c:	e51b1014 	ldr	r1, [fp, #-20]	; 0xffffffec
    8b30:	e0813003 	add	r3, r1, r3
    8b34:	e5922000 	ldr	r2, [r2]
    8b38:	e5832000 	str	r2, [r3]
/home/schenkj/os2022/sp/sources/userspace/sp_task/main.cpp:234 (discriminator 2)
		for (int i = 0; i < val_size / 2; i++) {
    8b3c:	e51b3008 	ldr	r3, [fp, #-8]
    8b40:	e2833001 	add	r3, r3, #1
    8b44:	e50b3008 	str	r3, [fp, #-8]
    8b48:	eaffffea 	b	8af8 <_Z10read_inputv+0x138>
/home/schenkj/os2022/sp/sources/userspace/sp_task/main.cpp:237
		}
		values = newVal;
    8b4c:	e59f201c 	ldr	r2, [pc, #28]	; 8b70 <_Z10read_inputv+0x1b0>
    8b50:	e51b3014 	ldr	r3, [fp, #-20]	; 0xffffffec
    8b54:	e5823000 	str	r3, [r2]
/home/schenkj/os2022/sp/sources/userspace/sp_task/main.cpp:240
	}

	return 0;
    8b58:	e3a03000 	mov	r3, #0
/home/schenkj/os2022/sp/sources/userspace/sp_task/main.cpp:241
}
    8b5c:	e1a00003 	mov	r0, r3
    8b60:	e24bd004 	sub	sp, fp, #4
    8b64:	e8bd8800 	pop	{fp, pc}
    8b68:	0000b86c 	andeq	fp, r0, ip, ror #16
    8b6c:	0000b230 	andeq	fp, r0, r0, lsr r2
    8b70:	0000b474 	andeq	fp, r0, r4, ror r4
    8b74:	0000b478 	andeq	fp, r0, r8, ror r4
    8b78:	0000b464 	andeq	fp, r0, r4, ror #8

00008b7c <_Z7count_bffff>:
_Z7count_bffff():
/home/schenkj/os2022/sp/sources/userspace/sp_task/main.cpp:244

//just quick function from CW - return b(t)
float count_b(float d, float e, float y_new, float y_old) {	//b(t) = D/E * dy(t)/dt + 1/E * y(t)			"dy(t)/dt" = (values[i-1] - values[i]) / ((step * 60) / (24 * 60 * 60))
    8b7c:	e52db004 	push	{fp}		; (str fp, [sp, #-4]!)
    8b80:	e28db000 	add	fp, sp, #0
    8b84:	e24dd024 	sub	sp, sp, #36	; 0x24
    8b88:	ed0b0a06 	vstr	s0, [fp, #-24]	; 0xffffffe8
    8b8c:	ed4b0a07 	vstr	s1, [fp, #-28]	; 0xffffffe4
    8b90:	ed0b1a08 	vstr	s2, [fp, #-32]	; 0xffffffe0
    8b94:	ed4b1a09 	vstr	s3, [fp, #-36]	; 0xffffffdc
/home/schenkj/os2022/sp/sources/userspace/sp_task/main.cpp:245
	float tmp1 = (d / e);
    8b98:	ed5b6a06 	vldr	s13, [fp, #-24]	; 0xffffffe8
    8b9c:	ed1b7a07 	vldr	s14, [fp, #-28]	; 0xffffffe4
    8ba0:	eec67a87 	vdiv.f32	s15, s13, s14
    8ba4:	ed4b7a02 	vstr	s15, [fp, #-8]
/home/schenkj/os2022/sp/sources/userspace/sp_task/main.cpp:246
	float tmp2 = DERIV_CONST;
    8ba8:	e59f3050 	ldr	r3, [pc, #80]	; 8c00 <_Z7count_bffff+0x84>
    8bac:	e5933000 	ldr	r3, [r3]
    8bb0:	e50b300c 	str	r3, [fp, #-12]
/home/schenkj/os2022/sp/sources/userspace/sp_task/main.cpp:247
	float tmp3 = 1 / e;
    8bb4:	eddf6a10 	vldr	s13, [pc, #64]	; 8bfc <_Z7count_bffff+0x80>
    8bb8:	ed1b7a07 	vldr	s14, [fp, #-28]	; 0xffffffe4
    8bbc:	eec67a87 	vdiv.f32	s15, s13, s14
    8bc0:	ed4b7a04 	vstr	s15, [fp, #-16]
/home/schenkj/os2022/sp/sources/userspace/sp_task/main.cpp:248
	float tmp4 = tmp1 * tmp2 + (tmp3 * y_new);
    8bc4:	ed1b7a02 	vldr	s14, [fp, #-8]
    8bc8:	ed5b7a03 	vldr	s15, [fp, #-12]
    8bcc:	ee277a27 	vmul.f32	s14, s14, s15
    8bd0:	ed5b6a04 	vldr	s13, [fp, #-16]
    8bd4:	ed5b7a08 	vldr	s15, [fp, #-32]	; 0xffffffe0
    8bd8:	ee667aa7 	vmul.f32	s15, s13, s15
    8bdc:	ee777a27 	vadd.f32	s15, s14, s15
    8be0:	ed4b7a05 	vstr	s15, [fp, #-20]	; 0xffffffec
/home/schenkj/os2022/sp/sources/userspace/sp_task/main.cpp:250

	return tmp4;
    8be4:	e51b3014 	ldr	r3, [fp, #-20]	; 0xffffffec
    8be8:	ee073a90 	vmov	s15, r3
/home/schenkj/os2022/sp/sources/userspace/sp_task/main.cpp:251
}
    8bec:	eeb00a67 	vmov.f32	s0, s15
    8bf0:	e28bd000 	add	sp, fp, #0
    8bf4:	e49db004 	pop	{fp}		; (ldr fp, [sp], #4)
    8bf8:	e12fff1e 	bx	lr
    8bfc:	3f800000 	svccc	0x00800000
    8c00:	0000b470 	andeq	fp, r0, r0, ror r4

00008c04 <_Z5get_yffffffff>:
_Z5get_yffffffff():
/home/schenkj/os2022/sp/sources/userspace/sp_task/main.cpp:254

//just quick function from CW - return y(t+tpred)
float get_y(float a, float b, float c, float d, float e, float x, float y_new, float y_old) {		//y(t + t_pred) = A * b(t) + B * b(t) * (b(t) - y(t)) + C
    8c04:	e92d4800 	push	{fp, lr}
    8c08:	e28db004 	add	fp, sp, #4
    8c0c:	e24dd028 	sub	sp, sp, #40	; 0x28
    8c10:	ed0b0a04 	vstr	s0, [fp, #-16]
    8c14:	ed4b0a05 	vstr	s1, [fp, #-20]	; 0xffffffec
    8c18:	ed0b1a06 	vstr	s2, [fp, #-24]	; 0xffffffe8
    8c1c:	ed4b1a07 	vstr	s3, [fp, #-28]	; 0xffffffe4
    8c20:	ed0b2a08 	vstr	s4, [fp, #-32]	; 0xffffffe0
    8c24:	ed4b2a09 	vstr	s5, [fp, #-36]	; 0xffffffdc
    8c28:	ed0b3a0a 	vstr	s6, [fp, #-40]	; 0xffffffd8
    8c2c:	ed4b3a0b 	vstr	s7, [fp, #-44]	; 0xffffffd4
/home/schenkj/os2022/sp/sources/userspace/sp_task/main.cpp:255
	float bt = count_b(d, e, y_new, y_old);
    8c30:	ed5b1a0b 	vldr	s3, [fp, #-44]	; 0xffffffd4
    8c34:	ed1b1a0a 	vldr	s2, [fp, #-40]	; 0xffffffd8
    8c38:	ed5b0a08 	vldr	s1, [fp, #-32]	; 0xffffffe0
    8c3c:	ed1b0a07 	vldr	s0, [fp, #-28]	; 0xffffffe4
    8c40:	ebffffcd 	bl	8b7c <_Z7count_bffff>
    8c44:	ed0b0a02 	vstr	s0, [fp, #-8]
/home/schenkj/os2022/sp/sources/userspace/sp_task/main.cpp:256
	return (a * bt) + (b * bt * (bt - y_new)) + c;
    8c48:	ed1b7a04 	vldr	s14, [fp, #-16]
    8c4c:	ed5b7a02 	vldr	s15, [fp, #-8]
    8c50:	ee277a27 	vmul.f32	s14, s14, s15
    8c54:	ed5b6a05 	vldr	s13, [fp, #-20]	; 0xffffffec
    8c58:	ed5b7a02 	vldr	s15, [fp, #-8]
    8c5c:	ee666aa7 	vmul.f32	s13, s13, s15
    8c60:	ed1b6a02 	vldr	s12, [fp, #-8]
    8c64:	ed5b7a0a 	vldr	s15, [fp, #-40]	; 0xffffffd8
    8c68:	ee767a67 	vsub.f32	s15, s12, s15
    8c6c:	ee667aa7 	vmul.f32	s15, s13, s15
    8c70:	ee377a27 	vadd.f32	s14, s14, s15
    8c74:	ed5b7a06 	vldr	s15, [fp, #-24]	; 0xffffffe8
    8c78:	ee777a27 	vadd.f32	s15, s14, s15
/home/schenkj/os2022/sp/sources/userspace/sp_task/main.cpp:257
}
    8c7c:	eeb00a67 	vmov.f32	s0, s15
    8c80:	e24bd004 	sub	sp, fp, #4
    8c84:	e8bd8800 	pop	{fp, pc}

00008c88 <_Z12pseudoRandomii>:
_Z12pseudoRandomii():
/home/schenkj/os2022/sp/sources/userspace/sp_task/main.cpp:261


//get new random number
int pseudoRandom(int start, int end) {
    8c88:	e92d4800 	push	{fp, lr}
    8c8c:	e28db004 	add	fp, sp, #4
    8c90:	e24dd010 	sub	sp, sp, #16
    8c94:	e50b0010 	str	r0, [fp, #-16]
    8c98:	e50b1014 	str	r1, [fp, #-20]	; 0xffffffec
/home/schenkj/os2022/sp/sources/userspace/sp_task/main.cpp:262
	char* buf = reinterpret_cast<char*>(malloc(sizeof(uint32_t)));
    8c9c:	e3a00004 	mov	r0, #4
    8ca0:	eb0004c5 	bl	9fbc <_Z6mallocj>
    8ca4:	e50b0008 	str	r0, [fp, #-8]
/home/schenkj/os2022/sp/sources/userspace/sp_task/main.cpp:263
	bzero(buf, sizeof(uint32_t));
    8ca8:	e3a01004 	mov	r1, #4
    8cac:	e51b0008 	ldr	r0, [fp, #-8]
    8cb0:	eb000768 	bl	aa58 <_Z5bzeroPvi>
/home/schenkj/os2022/sp/sources/userspace/sp_task/main.cpp:265
    //get new random value
	read(rnd, buf, sizeof(uint32_t));
    8cb4:	e59f3068 	ldr	r3, [pc, #104]	; 8d24 <_Z12pseudoRandomii+0x9c>
    8cb8:	e5933000 	ldr	r3, [r3]
    8cbc:	e3a02004 	mov	r2, #4
    8cc0:	e51b1008 	ldr	r1, [fp, #-8]
    8cc4:	e1a00003 	mov	r0, r3
    8cc8:	eb0003d2 	bl	9c18 <_Z4readjPcj>
/home/schenkj/os2022/sp/sources/userspace/sp_task/main.cpp:267
    //make it into number
	rnd_value = reinterpret_cast<uint32_t*>(buf)[0];
    8ccc:	e51b3008 	ldr	r3, [fp, #-8]
    8cd0:	e5933000 	ldr	r3, [r3]
    8cd4:	e59f204c 	ldr	r2, [pc, #76]	; 8d28 <_Z12pseudoRandomii+0xa0>
    8cd8:	e5823000 	str	r3, [r2]
/home/schenkj/os2022/sp/sources/userspace/sp_task/main.cpp:269
    //get radnom value in range
	rnd_value = rnd_value % (end-start);
    8cdc:	e59f3044 	ldr	r3, [pc, #68]	; 8d28 <_Z12pseudoRandomii+0xa0>
    8ce0:	e5930000 	ldr	r0, [r3]
    8ce4:	e51b2014 	ldr	r2, [fp, #-20]	; 0xffffffec
    8ce8:	e51b3010 	ldr	r3, [fp, #-16]
    8cec:	e0423003 	sub	r3, r2, r3
    8cf0:	e1a01003 	mov	r1, r3
    8cf4:	eb000922 	bl	b184 <__aeabi_uidivmod>
    8cf8:	e1a03001 	mov	r3, r1
    8cfc:	e1a02003 	mov	r2, r3
    8d00:	e59f3020 	ldr	r3, [pc, #32]	; 8d28 <_Z12pseudoRandomii+0xa0>
    8d04:	e5832000 	str	r2, [r3]
/home/schenkj/os2022/sp/sources/userspace/sp_task/main.cpp:271
	//return shifted
	return rnd_value + start;
    8d08:	e59f3018 	ldr	r3, [pc, #24]	; 8d28 <_Z12pseudoRandomii+0xa0>
    8d0c:	e5932000 	ldr	r2, [r3]
    8d10:	e51b3010 	ldr	r3, [fp, #-16]
    8d14:	e0823003 	add	r3, r2, r3
/home/schenkj/os2022/sp/sources/userspace/sp_task/main.cpp:272
}
    8d18:	e1a00003 	mov	r0, r3
    8d1c:	e24bd004 	sub	sp, fp, #4
    8d20:	e8bd8800 	pop	{fp, pc}
    8d24:	0000b918 	andeq	fp, r0, r8, lsl r9
    8d28:	0000b91c 	andeq	fp, r0, ip, lsl r9

00008d2c <_Z12generate_newi>:
_Z12generate_newi():
/home/schenkj/os2022/sp/sources/userspace/sp_task/main.cpp:275

//generate new member of generation
void generate_new(int index) {
    8d2c:	e92d4800 	push	{fp, lr}
    8d30:	e28db004 	add	fp, sp, #4
    8d34:	e24dd008 	sub	sp, sp, #8
    8d38:	e50b0008 	str	r0, [fp, #-8]
/home/schenkj/os2022/sp/sources/userspace/sp_task/main.cpp:276
	genIs(index, 0, pseudoRandom(0-RANDOM_RANGE, RANDOM_RANGE));
    8d3c:	e3a01032 	mov	r1, #50	; 0x32
    8d40:	e3e00031 	mvn	r0, #49	; 0x31
    8d44:	ebffffcf 	bl	8c88 <_Z12pseudoRandomii>
    8d48:	ee070a90 	vmov	s15, r0
    8d4c:	eef87ae7 	vcvt.f32.s32	s15, s15
    8d50:	eeb00a67 	vmov.f32	s0, s15
    8d54:	e3a01000 	mov	r1, #0
    8d58:	e51b0008 	ldr	r0, [fp, #-8]
    8d5c:	ebfffd70 	bl	8324 <_Z5genIsiif>
/home/schenkj/os2022/sp/sources/userspace/sp_task/main.cpp:277
	genIs(index, 1, pseudoRandom(0-RANDOM_RANGE, RANDOM_RANGE));
    8d60:	e3a01032 	mov	r1, #50	; 0x32
    8d64:	e3e00031 	mvn	r0, #49	; 0x31
    8d68:	ebffffc6 	bl	8c88 <_Z12pseudoRandomii>
    8d6c:	ee070a90 	vmov	s15, r0
    8d70:	eef87ae7 	vcvt.f32.s32	s15, s15
    8d74:	eeb00a67 	vmov.f32	s0, s15
    8d78:	e3a01001 	mov	r1, #1
    8d7c:	e51b0008 	ldr	r0, [fp, #-8]
    8d80:	ebfffd67 	bl	8324 <_Z5genIsiif>
/home/schenkj/os2022/sp/sources/userspace/sp_task/main.cpp:278
	genIs(index, 2, pseudoRandom(0-RANDOM_RANGE, RANDOM_RANGE));
    8d84:	e3a01032 	mov	r1, #50	; 0x32
    8d88:	e3e00031 	mvn	r0, #49	; 0x31
    8d8c:	ebffffbd 	bl	8c88 <_Z12pseudoRandomii>
    8d90:	ee070a90 	vmov	s15, r0
    8d94:	eef87ae7 	vcvt.f32.s32	s15, s15
    8d98:	eeb00a67 	vmov.f32	s0, s15
    8d9c:	e3a01002 	mov	r1, #2
    8da0:	e51b0008 	ldr	r0, [fp, #-8]
    8da4:	ebfffd5e 	bl	8324 <_Z5genIsiif>
/home/schenkj/os2022/sp/sources/userspace/sp_task/main.cpp:279
	genIs(index, 3, pseudoRandom(0-RANDOM_RANGE, RANDOM_RANGE));
    8da8:	e3a01032 	mov	r1, #50	; 0x32
    8dac:	e3e00031 	mvn	r0, #49	; 0x31
    8db0:	ebffffb4 	bl	8c88 <_Z12pseudoRandomii>
    8db4:	ee070a90 	vmov	s15, r0
    8db8:	eef87ae7 	vcvt.f32.s32	s15, s15
    8dbc:	eeb00a67 	vmov.f32	s0, s15
    8dc0:	e3a01003 	mov	r1, #3
    8dc4:	e51b0008 	ldr	r0, [fp, #-8]
    8dc8:	ebfffd55 	bl	8324 <_Z5genIsiif>
/home/schenkj/os2022/sp/sources/userspace/sp_task/main.cpp:280
	genIs(index, 4, pseudoRandom(0-RANDOM_RANGE, RANDOM_RANGE));
    8dcc:	e3a01032 	mov	r1, #50	; 0x32
    8dd0:	e3e00031 	mvn	r0, #49	; 0x31
    8dd4:	ebffffab 	bl	8c88 <_Z12pseudoRandomii>
    8dd8:	ee070a90 	vmov	s15, r0
    8ddc:	eef87ae7 	vcvt.f32.s32	s15, s15
    8de0:	eeb00a67 	vmov.f32	s0, s15
    8de4:	e3a01004 	mov	r1, #4
    8de8:	e51b0008 	ldr	r0, [fp, #-8]
    8dec:	ebfffd4c 	bl	8324 <_Z5genIsiif>
/home/schenkj/os2022/sp/sources/userspace/sp_task/main.cpp:281
}
    8df0:	e320f000 	nop	{0}
    8df4:	e24bd004 	sub	sp, fp, #4
    8df8:	e8bd8800 	pop	{fp, pc}

00008dfc <_Z4getYiffPf>:
_Z4getYiffPf():
/home/schenkj/os2022/sp/sources/userspace/sp_task/main.cpp:284

//mostly for debugging and bcs I am lazy to turn it back
float getY(int x, float y, float oldY, float* params) {
    8dfc:	e92d4800 	push	{fp, lr}
    8e00:	e28db004 	add	fp, sp, #4
    8e04:	e24dd028 	sub	sp, sp, #40	; 0x28
    8e08:	e50b0020 	str	r0, [fp, #-32]	; 0xffffffe0
    8e0c:	ed0b0a09 	vstr	s0, [fp, #-36]	; 0xffffffdc
    8e10:	ed4b0a0a 	vstr	s1, [fp, #-40]	; 0xffffffd8
    8e14:	e50b102c 	str	r1, [fp, #-44]	; 0xffffffd4
/home/schenkj/os2022/sp/sources/userspace/sp_task/main.cpp:285
	float a = params[0];
    8e18:	e51b302c 	ldr	r3, [fp, #-44]	; 0xffffffd4
    8e1c:	e5933000 	ldr	r3, [r3]
    8e20:	e50b3008 	str	r3, [fp, #-8]
/home/schenkj/os2022/sp/sources/userspace/sp_task/main.cpp:286
	float b = params[1];
    8e24:	e51b302c 	ldr	r3, [fp, #-44]	; 0xffffffd4
    8e28:	e5933004 	ldr	r3, [r3, #4]
    8e2c:	e50b300c 	str	r3, [fp, #-12]
/home/schenkj/os2022/sp/sources/userspace/sp_task/main.cpp:287
	float c = params[2];
    8e30:	e51b302c 	ldr	r3, [fp, #-44]	; 0xffffffd4
    8e34:	e5933008 	ldr	r3, [r3, #8]
    8e38:	e50b3010 	str	r3, [fp, #-16]
/home/schenkj/os2022/sp/sources/userspace/sp_task/main.cpp:288
	float d = params[3];
    8e3c:	e51b302c 	ldr	r3, [fp, #-44]	; 0xffffffd4
    8e40:	e593300c 	ldr	r3, [r3, #12]
    8e44:	e50b3014 	str	r3, [fp, #-20]	; 0xffffffec
/home/schenkj/os2022/sp/sources/userspace/sp_task/main.cpp:289
	float e = params[4];
    8e48:	e51b302c 	ldr	r3, [fp, #-44]	; 0xffffffd4
    8e4c:	e5933010 	ldr	r3, [r3, #16]
    8e50:	e50b3018 	str	r3, [fp, #-24]	; 0xffffffe8
/home/schenkj/os2022/sp/sources/userspace/sp_task/main.cpp:290
	return get_y(a, b, c, d, e, x, y, oldY);
    8e54:	e51b3020 	ldr	r3, [fp, #-32]	; 0xffffffe0
    8e58:	ee073a90 	vmov	s15, r3
    8e5c:	eef87ae7 	vcvt.f32.s32	s15, s15
    8e60:	ed5b3a0a 	vldr	s7, [fp, #-40]	; 0xffffffd8
    8e64:	ed1b3a09 	vldr	s6, [fp, #-36]	; 0xffffffdc
    8e68:	eef02a67 	vmov.f32	s5, s15
    8e6c:	ed1b2a06 	vldr	s4, [fp, #-24]	; 0xffffffe8
    8e70:	ed5b1a05 	vldr	s3, [fp, #-20]	; 0xffffffec
    8e74:	ed1b1a04 	vldr	s2, [fp, #-16]
    8e78:	ed5b0a03 	vldr	s1, [fp, #-12]
    8e7c:	ed1b0a02 	vldr	s0, [fp, #-8]
    8e80:	ebffff5f 	bl	8c04 <_Z5get_yffffffff>
    8e84:	eef07a40 	vmov.f32	s15, s0
/home/schenkj/os2022/sp/sources/userspace/sp_task/main.cpp:291
}
    8e88:	eeb00a67 	vmov.f32	s0, s15
    8e8c:	e24bd004 	sub	sp, fp, #4
    8e90:	e8bd8800 	pop	{fp, pc}

00008e94 <_Z11get_fitnessPf>:
_Z11get_fitnessPf():
/home/schenkj/os2022/sp/sources/userspace/sp_task/main.cpp:294

//function to get fitness of member of generation
float get_fitness(float* params) {
    8e94:	e92d4870 	push	{r4, r5, r6, fp, lr}
    8e98:	ed2d8b02 	vpush	{d8}
    8e9c:	e28db018 	add	fp, sp, #24
    8ea0:	e24dd01c 	sub	sp, sp, #28
    8ea4:	e50b0030 	str	r0, [fp, #-48]	; 0xffffffd0
/home/schenkj/os2022/sp/sources/userspace/sp_task/main.cpp:295
	float sum = 0;
    8ea8:	e3a03000 	mov	r3, #0
    8eac:	e50b3020 	str	r3, [fp, #-32]	; 0xffffffe0
/home/schenkj/os2022/sp/sources/userspace/sp_task/main.cpp:298
	float predictedY, realYWas;
	//for each point I have possible prediction and real value
	for (int i = PRED / DELTA + 1; i < val_counter; i++) {
    8eb0:	e59f3148 	ldr	r3, [pc, #328]	; 9000 <_Z11get_fitnessPf+0x16c>
    8eb4:	e5933000 	ldr	r3, [r3]
    8eb8:	e59f2144 	ldr	r2, [pc, #324]	; 9004 <_Z11get_fitnessPf+0x170>
    8ebc:	e5922000 	ldr	r2, [r2]
    8ec0:	e1a01002 	mov	r1, r2
    8ec4:	e1a00003 	mov	r0, r3
    8ec8:	eb000832 	bl	af98 <__udivsi3>
    8ecc:	e1a03000 	mov	r3, r0
    8ed0:	e2833001 	add	r3, r3, #1
    8ed4:	e50b3024 	str	r3, [fp, #-36]	; 0xffffffdc
/home/schenkj/os2022/sp/sources/userspace/sp_task/main.cpp:298 (discriminator 3)
    8ed8:	e51b2024 	ldr	r2, [fp, #-36]	; 0xffffffdc
    8edc:	e59f3124 	ldr	r3, [pc, #292]	; 9008 <_Z11get_fitnessPf+0x174>
    8ee0:	e5933000 	ldr	r3, [r3]
    8ee4:	e1520003 	cmp	r2, r3
    8ee8:	2a00003e 	bcs	8fe8 <_Z11get_fitnessPf+0x154>
/home/schenkj/os2022/sp/sources/userspace/sp_task/main.cpp:300 (discriminator 2)
		//predict point with old values and check with newly got value
		predictedY = getY(i * DELTA, values[i - (PRED / DELTA)], values[i - 1 - (PRED / DELTA)], params);
    8eec:	e51b3024 	ldr	r3, [fp, #-36]	; 0xffffffdc
    8ef0:	e59f210c 	ldr	r2, [pc, #268]	; 9004 <_Z11get_fitnessPf+0x170>
    8ef4:	e5922000 	ldr	r2, [r2]
    8ef8:	e0030392 	mul	r3, r2, r3
    8efc:	e1a06003 	mov	r6, r3
    8f00:	e59f3104 	ldr	r3, [pc, #260]	; 900c <_Z11get_fitnessPf+0x178>
    8f04:	e5934000 	ldr	r4, [r3]
    8f08:	e51b5024 	ldr	r5, [fp, #-36]	; 0xffffffdc
    8f0c:	e59f30ec 	ldr	r3, [pc, #236]	; 9000 <_Z11get_fitnessPf+0x16c>
    8f10:	e5933000 	ldr	r3, [r3]
    8f14:	e59f20e8 	ldr	r2, [pc, #232]	; 9004 <_Z11get_fitnessPf+0x170>
    8f18:	e5922000 	ldr	r2, [r2]
    8f1c:	e1a01002 	mov	r1, r2
    8f20:	e1a00003 	mov	r0, r3
    8f24:	eb00081b 	bl	af98 <__udivsi3>
    8f28:	e1a03000 	mov	r3, r0
    8f2c:	e0453003 	sub	r3, r5, r3
    8f30:	e1a03103 	lsl	r3, r3, #2
    8f34:	e0843003 	add	r3, r4, r3
    8f38:	ed938a00 	vldr	s16, [r3]
    8f3c:	e59f30c8 	ldr	r3, [pc, #200]	; 900c <_Z11get_fitnessPf+0x178>
    8f40:	e5934000 	ldr	r4, [r3]
    8f44:	e51b5024 	ldr	r5, [fp, #-36]	; 0xffffffdc
    8f48:	e59f30b0 	ldr	r3, [pc, #176]	; 9000 <_Z11get_fitnessPf+0x16c>
    8f4c:	e5933000 	ldr	r3, [r3]
    8f50:	e59f20ac 	ldr	r2, [pc, #172]	; 9004 <_Z11get_fitnessPf+0x170>
    8f54:	e5922000 	ldr	r2, [r2]
    8f58:	e1a01002 	mov	r1, r2
    8f5c:	e1a00003 	mov	r0, r3
    8f60:	eb00080c 	bl	af98 <__udivsi3>
    8f64:	e1a03000 	mov	r3, r0
    8f68:	e0453003 	sub	r3, r5, r3
    8f6c:	e2433001 	sub	r3, r3, #1
    8f70:	e1a03103 	lsl	r3, r3, #2
    8f74:	e0843003 	add	r3, r4, r3
    8f78:	edd37a00 	vldr	s15, [r3]
    8f7c:	e51b1030 	ldr	r1, [fp, #-48]	; 0xffffffd0
    8f80:	eef00a67 	vmov.f32	s1, s15
    8f84:	eeb00a48 	vmov.f32	s0, s16
    8f88:	e1a00006 	mov	r0, r6
    8f8c:	ebffff9a 	bl	8dfc <_Z4getYiffPf>
    8f90:	ed0b0a0a 	vstr	s0, [fp, #-40]	; 0xffffffd8
/home/schenkj/os2022/sp/sources/userspace/sp_task/main.cpp:301 (discriminator 2)
		realYWas = values[i];
    8f94:	e59f3070 	ldr	r3, [pc, #112]	; 900c <_Z11get_fitnessPf+0x178>
    8f98:	e5932000 	ldr	r2, [r3]
    8f9c:	e51b3024 	ldr	r3, [fp, #-36]	; 0xffffffdc
    8fa0:	e1a03103 	lsl	r3, r3, #2
    8fa4:	e0823003 	add	r3, r2, r3
    8fa8:	e5933000 	ldr	r3, [r3]
    8fac:	e50b302c 	str	r3, [fp, #-44]	; 0xffffffd4
/home/schenkj/os2022/sp/sources/userspace/sp_task/main.cpp:303 (discriminator 2)
		//add a*a for positive value
		sum += (realYWas - predictedY) * (realYWas - predictedY);
    8fb0:	ed1b7a0b 	vldr	s14, [fp, #-44]	; 0xffffffd4
    8fb4:	ed5b7a0a 	vldr	s15, [fp, #-40]	; 0xffffffd8
    8fb8:	ee377a67 	vsub.f32	s14, s14, s15
    8fbc:	ed5b6a0b 	vldr	s13, [fp, #-44]	; 0xffffffd4
    8fc0:	ed5b7a0a 	vldr	s15, [fp, #-40]	; 0xffffffd8
    8fc4:	ee767ae7 	vsub.f32	s15, s13, s15
    8fc8:	ee677a27 	vmul.f32	s15, s14, s15
    8fcc:	ed1b7a08 	vldr	s14, [fp, #-32]	; 0xffffffe0
    8fd0:	ee777a27 	vadd.f32	s15, s14, s15
    8fd4:	ed4b7a08 	vstr	s15, [fp, #-32]	; 0xffffffe0
/home/schenkj/os2022/sp/sources/userspace/sp_task/main.cpp:298 (discriminator 2)
	for (int i = PRED / DELTA + 1; i < val_counter; i++) {
    8fd8:	e51b3024 	ldr	r3, [fp, #-36]	; 0xffffffdc
    8fdc:	e2833001 	add	r3, r3, #1
    8fe0:	e50b3024 	str	r3, [fp, #-36]	; 0xffffffdc
    8fe4:	eaffffbb 	b	8ed8 <_Z11get_fitnessPf+0x44>
/home/schenkj/os2022/sp/sources/userspace/sp_task/main.cpp:305
	}
	return sum;
    8fe8:	e51b3020 	ldr	r3, [fp, #-32]	; 0xffffffe0
    8fec:	ee073a90 	vmov	s15, r3
/home/schenkj/os2022/sp/sources/userspace/sp_task/main.cpp:306
}
    8ff0:	eeb00a67 	vmov.f32	s0, s15
    8ff4:	e24bd018 	sub	sp, fp, #24
    8ff8:	ecbd8b02 	vpop	{d8}
    8ffc:	e8bd8870 	pop	{r4, r5, r6, fp, pc}
    9000:	0000b46c 	andeq	fp, r0, ip, ror #8
    9004:	0000b468 	andeq	fp, r0, r8, ror #8
    9008:	0000b478 	andeq	fp, r0, r8, ror r4
    900c:	0000b474 	andeq	fp, r0, r4, ror r4

00009010 <_Z5countv>:
_Z5countv():
/home/schenkj/os2022/sp/sources/userspace/sp_task/main.cpp:309

//run evolution
float count() {
    9010:	e92d4810 	push	{r4, fp, lr}
    9014:	ed2d8b02 	vpush	{d8}
    9018:	e28db010 	add	fp, sp, #16
    901c:	e24dd07c 	sub	sp, sp, #124	; 0x7c
/home/schenkj/os2022/sp/sources/userspace/sp_task/main.cpp:310
	old_best_params=best_params;
    9020:	e59f35f4 	ldr	r3, [pc, #1524]	; 961c <_Z5countv+0x60c>
    9024:	e5933000 	ldr	r3, [r3]
    9028:	e59f25f0 	ldr	r2, [pc, #1520]	; 9620 <_Z5countv+0x610>
    902c:	e5823000 	str	r3, [r2]
/home/schenkj/os2022/sp/sources/userspace/sp_task/main.cpp:314
	float treshold, fit, best, next_y;
	int bestIndex;
	//if I dont have enough data
	if (val_counter <= (PRED / DELTA) + 1) {
    9030:	e59f35ec 	ldr	r3, [pc, #1516]	; 9624 <_Z5countv+0x614>
    9034:	e5933000 	ldr	r3, [r3]
    9038:	e59f25e8 	ldr	r2, [pc, #1512]	; 9628 <_Z5countv+0x618>
    903c:	e5922000 	ldr	r2, [r2]
    9040:	e1a01002 	mov	r1, r2
    9044:	e1a00003 	mov	r0, r3
    9048:	eb0007d2 	bl	af98 <__udivsi3>
    904c:	e1a03000 	mov	r3, r0
    9050:	e2832001 	add	r2, r3, #1
    9054:	e59f35d0 	ldr	r3, [pc, #1488]	; 962c <_Z5countv+0x61c>
    9058:	e5933000 	ldr	r3, [r3]
    905c:	e1520003 	cmp	r2, r3
    9060:	3a000007 	bcc	9084 <_Z5countv+0x74>
/home/schenkj/os2022/sp/sources/userspace/sp_task/main.cpp:315
        write(uartFile, "Not enough values\n", 18);
    9064:	e59f35c4 	ldr	r3, [pc, #1476]	; 9630 <_Z5countv+0x620>
    9068:	e5933000 	ldr	r3, [r3]
    906c:	e3a02012 	mov	r2, #18
    9070:	e59f15bc 	ldr	r1, [pc, #1468]	; 9634 <_Z5countv+0x624>
    9074:	e1a00003 	mov	r0, r3
    9078:	eb0002fa 	bl	9c68 <_Z5writejPKcj>
/home/schenkj/os2022/sp/sources/userspace/sp_task/main.cpp:316
		return -1.0;
    907c:	e59f35b4 	ldr	r3, [pc, #1460]	; 9638 <_Z5countv+0x628>
    9080:	ea000160 	b	9608 <_Z5countv+0x5f8>
/home/schenkj/os2022/sp/sources/userspace/sp_task/main.cpp:320
	}
	
	//inicialization of population
	else if (val_counter - 1 == (PRED / DELTA) + 1) {
    9084:	e59f35a0 	ldr	r3, [pc, #1440]	; 962c <_Z5countv+0x61c>
    9088:	e5933000 	ldr	r3, [r3]
    908c:	e2434001 	sub	r4, r3, #1
    9090:	e59f358c 	ldr	r3, [pc, #1420]	; 9624 <_Z5countv+0x614>
    9094:	e5933000 	ldr	r3, [r3]
    9098:	e59f2588 	ldr	r2, [pc, #1416]	; 9628 <_Z5countv+0x618>
    909c:	e5922000 	ldr	r2, [r2]
    90a0:	e1a01002 	mov	r1, r2
    90a4:	e1a00003 	mov	r0, r3
    90a8:	eb0007ba 	bl	af98 <__udivsi3>
    90ac:	e1a03000 	mov	r3, r0
    90b0:	e2833001 	add	r3, r3, #1
    90b4:	e1540003 	cmp	r4, r3
    90b8:	1a00000a 	bne	90e8 <_Z5countv+0xd8>
/home/schenkj/os2022/sp/sources/userspace/sp_task/main.cpp:321
		for (int i = 0; i < POPULATION; i++) {
    90bc:	e3a03000 	mov	r3, #0
    90c0:	e50b3020 	str	r3, [fp, #-32]	; 0xffffffe0
/home/schenkj/os2022/sp/sources/userspace/sp_task/main.cpp:321 (discriminator 3)
    90c4:	e51b3020 	ldr	r3, [fp, #-32]	; 0xffffffe0
    90c8:	e3530031 	cmp	r3, #49	; 0x31
    90cc:	8a000005 	bhi	90e8 <_Z5countv+0xd8>
/home/schenkj/os2022/sp/sources/userspace/sp_task/main.cpp:322 (discriminator 2)
			generate_new(i);
    90d0:	e51b0020 	ldr	r0, [fp, #-32]	; 0xffffffe0
    90d4:	ebffff14 	bl	8d2c <_Z12generate_newi>
/home/schenkj/os2022/sp/sources/userspace/sp_task/main.cpp:321 (discriminator 2)
		for (int i = 0; i < POPULATION; i++) {
    90d8:	e51b3020 	ldr	r3, [fp, #-32]	; 0xffffffe0
    90dc:	e2833001 	add	r3, r3, #1
    90e0:	e50b3020 	str	r3, [fp, #-32]	; 0xffffffe0
    90e4:	eafffff6 	b	90c4 <_Z5countv+0xb4>
/home/schenkj/os2022/sp/sources/userspace/sp_task/main.cpp:328
		}
	}

	//1st is best for now
	float tmp[5];
	tmp[0] = gen(0,0);
    90e8:	e3a01000 	mov	r1, #0
    90ec:	e3a00000 	mov	r0, #0
    90f0:	ebfffc4e 	bl	8230 <_Z3genii>
    90f4:	eef07a40 	vmov.f32	s15, s0
    90f8:	ed4b7a19 	vstr	s15, [fp, #-100]	; 0xffffff9c
/home/schenkj/os2022/sp/sources/userspace/sp_task/main.cpp:329
	tmp[1] = gen(0,1);
    90fc:	e3a01001 	mov	r1, #1
    9100:	e3a00000 	mov	r0, #0
    9104:	ebfffc49 	bl	8230 <_Z3genii>
    9108:	eef07a40 	vmov.f32	s15, s0
    910c:	ed4b7a18 	vstr	s15, [fp, #-96]	; 0xffffffa0
/home/schenkj/os2022/sp/sources/userspace/sp_task/main.cpp:330
	tmp[2] = gen(0,2);
    9110:	e3a01002 	mov	r1, #2
    9114:	e3a00000 	mov	r0, #0
    9118:	ebfffc44 	bl	8230 <_Z3genii>
    911c:	eef07a40 	vmov.f32	s15, s0
    9120:	ed4b7a17 	vstr	s15, [fp, #-92]	; 0xffffffa4
/home/schenkj/os2022/sp/sources/userspace/sp_task/main.cpp:331
	tmp[3] = gen(0,3);
    9124:	e3a01003 	mov	r1, #3
    9128:	e3a00000 	mov	r0, #0
    912c:	ebfffc3f 	bl	8230 <_Z3genii>
    9130:	eef07a40 	vmov.f32	s15, s0
    9134:	ed4b7a16 	vstr	s15, [fp, #-88]	; 0xffffffa8
/home/schenkj/os2022/sp/sources/userspace/sp_task/main.cpp:332
	tmp[4] = gen(0,4);
    9138:	e3a01004 	mov	r1, #4
    913c:	e3a00000 	mov	r0, #0
    9140:	ebfffc3a 	bl	8230 <_Z3genii>
    9144:	eef07a40 	vmov.f32	s15, s0
    9148:	ed4b7a15 	vstr	s15, [fp, #-84]	; 0xffffffac
/home/schenkj/os2022/sp/sources/userspace/sp_task/main.cpp:333
	best = get_fitness(tmp);
    914c:	e24b3064 	sub	r3, fp, #100	; 0x64
    9150:	e1a00003 	mov	r0, r3
    9154:	ebffff4e 	bl	8e94 <_Z11get_fitnessPf>
    9158:	ed0b0a06 	vstr	s0, [fp, #-24]	; 0xffffffe8
/home/schenkj/os2022/sp/sources/userspace/sp_task/main.cpp:335
	//run for desired number of generations
	for (int i = 0; i < GEN_COUNT; i++) {
    915c:	e3a03000 	mov	r3, #0
    9160:	e50b3024 	str	r3, [fp, #-36]	; 0xffffffdc
/home/schenkj/os2022/sp/sources/userspace/sp_task/main.cpp:335 (discriminator 1)
    9164:	e51b3024 	ldr	r3, [fp, #-36]	; 0xffffffdc
    9168:	e3530ffa 	cmp	r3, #1000	; 0x3e8
    916c:	2a00010c 	bcs	95a4 <_Z5countv+0x594>
/home/schenkj/os2022/sp/sources/userspace/sp_task/main.cpp:337
		//set threshold - wore part of population will be randomized, better will stay and wait for crossing
		int rndIndex = pseudoRandom(0, POPULATION);
    9170:	e3a01032 	mov	r1, #50	; 0x32
    9174:	e3a00000 	mov	r0, #0
    9178:	ebfffec2 	bl	8c88 <_Z12pseudoRandomii>
    917c:	e50b003c 	str	r0, [fp, #-60]	; 0xffffffc4
/home/schenkj/os2022/sp/sources/userspace/sp_task/main.cpp:339
		float tmp2[5];
		tmp2[0] = gen(rndIndex,0);
    9180:	e3a01000 	mov	r1, #0
    9184:	e51b003c 	ldr	r0, [fp, #-60]	; 0xffffffc4
    9188:	ebfffc28 	bl	8230 <_Z3genii>
    918c:	eef07a40 	vmov.f32	s15, s0
    9190:	ed4b7a1e 	vstr	s15, [fp, #-120]	; 0xffffff88
/home/schenkj/os2022/sp/sources/userspace/sp_task/main.cpp:340
		tmp2[1] = gen(rndIndex,1);
    9194:	e3a01001 	mov	r1, #1
    9198:	e51b003c 	ldr	r0, [fp, #-60]	; 0xffffffc4
    919c:	ebfffc23 	bl	8230 <_Z3genii>
    91a0:	eef07a40 	vmov.f32	s15, s0
    91a4:	ed4b7a1d 	vstr	s15, [fp, #-116]	; 0xffffff8c
/home/schenkj/os2022/sp/sources/userspace/sp_task/main.cpp:341
		tmp2[2] = gen(rndIndex,2);
    91a8:	e3a01002 	mov	r1, #2
    91ac:	e51b003c 	ldr	r0, [fp, #-60]	; 0xffffffc4
    91b0:	ebfffc1e 	bl	8230 <_Z3genii>
    91b4:	eef07a40 	vmov.f32	s15, s0
    91b8:	ed4b7a1c 	vstr	s15, [fp, #-112]	; 0xffffff90
/home/schenkj/os2022/sp/sources/userspace/sp_task/main.cpp:342
		tmp2[3] = gen(rndIndex,3);
    91bc:	e3a01003 	mov	r1, #3
    91c0:	e51b003c 	ldr	r0, [fp, #-60]	; 0xffffffc4
    91c4:	ebfffc19 	bl	8230 <_Z3genii>
    91c8:	eef07a40 	vmov.f32	s15, s0
    91cc:	ed4b7a1b 	vstr	s15, [fp, #-108]	; 0xffffff94
/home/schenkj/os2022/sp/sources/userspace/sp_task/main.cpp:343
		tmp2[4] = gen(rndIndex,4);
    91d0:	e3a01004 	mov	r1, #4
    91d4:	e51b003c 	ldr	r0, [fp, #-60]	; 0xffffffc4
    91d8:	ebfffc14 	bl	8230 <_Z3genii>
    91dc:	eef07a40 	vmov.f32	s15, s0
    91e0:	ed4b7a1a 	vstr	s15, [fp, #-104]	; 0xffffff98
/home/schenkj/os2022/sp/sources/userspace/sp_task/main.cpp:344
		treshold = get_fitness(tmp2);
    91e4:	e24b3078 	sub	r3, fp, #120	; 0x78
    91e8:	e1a00003 	mov	r0, r3
    91ec:	ebffff28 	bl	8e94 <_Z11get_fitnessPf>
    91f0:	ed0b0a10 	vstr	s0, [fp, #-64]	; 0xffffffc0
/home/schenkj/os2022/sp/sources/userspace/sp_task/main.cpp:347

		//evaluation part
		for (int j = 1; j < POPULATION; j++) {
    91f4:	e3a03001 	mov	r3, #1
    91f8:	e50b3028 	str	r3, [fp, #-40]	; 0xffffffd8
/home/schenkj/os2022/sp/sources/userspace/sp_task/main.cpp:347 (discriminator 2)
    91fc:	e51b3028 	ldr	r3, [fp, #-40]	; 0xffffffd8
    9200:	e3530031 	cmp	r3, #49	; 0x31
    9204:	8a000045 	bhi	9320 <_Z5countv+0x310>
/home/schenkj/os2022/sp/sources/userspace/sp_task/main.cpp:349
			float tmp1[5];
			tmp1[0] = gen(j,0);
    9208:	e3a01000 	mov	r1, #0
    920c:	e51b0028 	ldr	r0, [fp, #-40]	; 0xffffffd8
    9210:	ebfffc06 	bl	8230 <_Z3genii>
    9214:	eef07a40 	vmov.f32	s15, s0
    9218:	ed4b7a23 	vstr	s15, [fp, #-140]	; 0xffffff74
/home/schenkj/os2022/sp/sources/userspace/sp_task/main.cpp:350
			tmp1[1] = gen(j,1);
    921c:	e3a01001 	mov	r1, #1
    9220:	e51b0028 	ldr	r0, [fp, #-40]	; 0xffffffd8
    9224:	ebfffc01 	bl	8230 <_Z3genii>
    9228:	eef07a40 	vmov.f32	s15, s0
    922c:	ed4b7a22 	vstr	s15, [fp, #-136]	; 0xffffff78
/home/schenkj/os2022/sp/sources/userspace/sp_task/main.cpp:351
			tmp1[2] = gen(j,2);
    9230:	e3a01002 	mov	r1, #2
    9234:	e51b0028 	ldr	r0, [fp, #-40]	; 0xffffffd8
    9238:	ebfffbfc 	bl	8230 <_Z3genii>
    923c:	eef07a40 	vmov.f32	s15, s0
    9240:	ed4b7a21 	vstr	s15, [fp, #-132]	; 0xffffff7c
/home/schenkj/os2022/sp/sources/userspace/sp_task/main.cpp:352
			tmp1[3] = gen(j,3);
    9244:	e3a01003 	mov	r1, #3
    9248:	e51b0028 	ldr	r0, [fp, #-40]	; 0xffffffd8
    924c:	ebfffbf7 	bl	8230 <_Z3genii>
    9250:	eef07a40 	vmov.f32	s15, s0
    9254:	ed4b7a20 	vstr	s15, [fp, #-128]	; 0xffffff80
/home/schenkj/os2022/sp/sources/userspace/sp_task/main.cpp:353
			tmp1[4] = gen(j,4);
    9258:	e3a01004 	mov	r1, #4
    925c:	e51b0028 	ldr	r0, [fp, #-40]	; 0xffffffd8
    9260:	ebfffbf2 	bl	8230 <_Z3genii>
    9264:	eef07a40 	vmov.f32	s15, s0
    9268:	ed4b7a1f 	vstr	s15, [fp, #-124]	; 0xffffff84
/home/schenkj/os2022/sp/sources/userspace/sp_task/main.cpp:355
			//get fit of this member
			fit = get_fitness(tmp1);
    926c:	e24b308c 	sub	r3, fp, #140	; 0x8c
    9270:	e1a00003 	mov	r0, r3
    9274:	ebffff06 	bl	8e94 <_Z11get_fitnessPf>
    9278:	ed0b0a11 	vstr	s0, [fp, #-68]	; 0xffffffbc
/home/schenkj/os2022/sp/sources/userspace/sp_task/main.cpp:357
			//if its not good enough replace with new random member
			if (fit > treshold) {
    927c:	ed1b7a11 	vldr	s14, [fp, #-68]	; 0xffffffbc
    9280:	ed5b7a10 	vldr	s15, [fp, #-64]	; 0xffffffc0
    9284:	eeb47ae7 	vcmpe.f32	s14, s15
    9288:	eef1fa10 	vmrs	APSR_nzcv, fpscr
    928c:	da000002 	ble	929c <_Z5countv+0x28c>
/home/schenkj/os2022/sp/sources/userspace/sp_task/main.cpp:358
				generate_new(j);
    9290:	e51b0028 	ldr	r0, [fp, #-40]	; 0xffffffd8
    9294:	ebfffea4 	bl	8d2c <_Z12generate_newi>
    9298:	ea00001c 	b	9310 <_Z5countv+0x300>
/home/schenkj/os2022/sp/sources/userspace/sp_task/main.cpp:361
			}
			//if its good, keep it and check for best
			else if (fit < best) {
    929c:	ed1b7a11 	vldr	s14, [fp, #-68]	; 0xffffffbc
    92a0:	ed5b7a06 	vldr	s15, [fp, #-24]	; 0xffffffe8
    92a4:	eeb47ae7 	vcmpe.f32	s14, s15
    92a8:	eef1fa10 	vmrs	APSR_nzcv, fpscr
    92ac:	5a000017 	bpl	9310 <_Z5countv+0x300>
/home/schenkj/os2022/sp/sources/userspace/sp_task/main.cpp:362
				best = fit;
    92b0:	e51b3044 	ldr	r3, [fp, #-68]	; 0xffffffbc
    92b4:	e50b3018 	str	r3, [fp, #-24]	; 0xffffffe8
/home/schenkj/os2022/sp/sources/userspace/sp_task/main.cpp:363
				best_index = j;
    92b8:	e51b3028 	ldr	r3, [fp, #-40]	; 0xffffffd8
    92bc:	e59f2378 	ldr	r2, [pc, #888]	; 963c <_Z5countv+0x62c>
    92c0:	e5823000 	str	r3, [r2]
/home/schenkj/os2022/sp/sources/userspace/sp_task/main.cpp:364
				for (int k = 0; k < 5; k++) {
    92c4:	e3a03000 	mov	r3, #0
    92c8:	e50b302c 	str	r3, [fp, #-44]	; 0xffffffd4
/home/schenkj/os2022/sp/sources/userspace/sp_task/main.cpp:364 (discriminator 3)
    92cc:	e51b302c 	ldr	r3, [fp, #-44]	; 0xffffffd4
    92d0:	e3530004 	cmp	r3, #4
    92d4:	ca00000d 	bgt	9310 <_Z5countv+0x300>
/home/schenkj/os2022/sp/sources/userspace/sp_task/main.cpp:365 (discriminator 2)
					best_params[k] = gen(j,k);
    92d8:	e59f333c 	ldr	r3, [pc, #828]	; 961c <_Z5countv+0x60c>
    92dc:	e5932000 	ldr	r2, [r3]
    92e0:	e51b302c 	ldr	r3, [fp, #-44]	; 0xffffffd4
    92e4:	e1a03103 	lsl	r3, r3, #2
    92e8:	e0824003 	add	r4, r2, r3
    92ec:	e51b102c 	ldr	r1, [fp, #-44]	; 0xffffffd4
    92f0:	e51b0028 	ldr	r0, [fp, #-40]	; 0xffffffd8
    92f4:	ebfffbcd 	bl	8230 <_Z3genii>
    92f8:	eef07a40 	vmov.f32	s15, s0
    92fc:	edc47a00 	vstr	s15, [r4]
/home/schenkj/os2022/sp/sources/userspace/sp_task/main.cpp:364 (discriminator 2)
				for (int k = 0; k < 5; k++) {
    9300:	e51b302c 	ldr	r3, [fp, #-44]	; 0xffffffd4
    9304:	e2833001 	add	r3, r3, #1
    9308:	e50b302c 	str	r3, [fp, #-44]	; 0xffffffd4
    930c:	eaffffee 	b	92cc <_Z5countv+0x2bc>
/home/schenkj/os2022/sp/sources/userspace/sp_task/main.cpp:347 (discriminator 1)
		for (int j = 1; j < POPULATION; j++) {
    9310:	e51b3028 	ldr	r3, [fp, #-40]	; 0xffffffd8
    9314:	e2833001 	add	r3, r3, #1
    9318:	e50b3028 	str	r3, [fp, #-40]	; 0xffffffd8
    931c:	eaffffb6 	b	91fc <_Z5countv+0x1ec>
/home/schenkj/os2022/sp/sources/userspace/sp_task/main.cpp:371
				}
			}
		}
		
		//count new y
		next_y = getY(val_counter + 1, values[val_counter - 1], values[val_counter - 2], best_params);
    9320:	e59f3304 	ldr	r3, [pc, #772]	; 962c <_Z5countv+0x61c>
    9324:	e5933000 	ldr	r3, [r3]
    9328:	e2833001 	add	r3, r3, #1
    932c:	e1a00003 	mov	r0, r3
    9330:	e59f3308 	ldr	r3, [pc, #776]	; 9640 <_Z5countv+0x630>
    9334:	e5932000 	ldr	r2, [r3]
    9338:	e59f32ec 	ldr	r3, [pc, #748]	; 962c <_Z5countv+0x61c>
    933c:	e5933000 	ldr	r3, [r3]
    9340:	e2433107 	sub	r3, r3, #-1073741823	; 0xc0000001
    9344:	e1a03103 	lsl	r3, r3, #2
    9348:	e0823003 	add	r3, r2, r3
    934c:	edd37a00 	vldr	s15, [r3]
    9350:	e59f32e8 	ldr	r3, [pc, #744]	; 9640 <_Z5countv+0x630>
    9354:	e5932000 	ldr	r2, [r3]
    9358:	e59f32cc 	ldr	r3, [pc, #716]	; 962c <_Z5countv+0x61c>
    935c:	e5933000 	ldr	r3, [r3]
    9360:	e243310b 	sub	r3, r3, #-1073741822	; 0xc0000002
    9364:	e1a03103 	lsl	r3, r3, #2
    9368:	e0823003 	add	r3, r2, r3
    936c:	ed937a00 	vldr	s14, [r3]
    9370:	e59f32a4 	ldr	r3, [pc, #676]	; 961c <_Z5countv+0x60c>
    9374:	e5933000 	ldr	r3, [r3]
    9378:	e1a01003 	mov	r1, r3
    937c:	eef00a47 	vmov.f32	s1, s14
    9380:	eeb00a67 	vmov.f32	s0, s15
    9384:	ebfffe9c 	bl	8dfc <_Z4getYiffPf>
    9388:	ed0b0a07 	vstr	s0, [fp, #-28]	; 0xffffffe4
/home/schenkj/os2022/sp/sources/userspace/sp_task/main.cpp:374
		
		//crossing
		for (int i = 0; i < POPULATION; i++) {
    938c:	e3a03000 	mov	r3, #0
    9390:	e50b3030 	str	r3, [fp, #-48]	; 0xffffffd0
/home/schenkj/os2022/sp/sources/userspace/sp_task/main.cpp:374 (discriminator 1)
    9394:	e51b3030 	ldr	r3, [fp, #-48]	; 0xffffffd0
    9398:	e3530031 	cmp	r3, #49	; 0x31
    939c:	8a000024 	bhi	9434 <_Z5countv+0x424>
/home/schenkj/os2022/sp/sources/userspace/sp_task/main.cpp:377
			
			//0-5x cross
			for (int j = 0; j < pseudoRandom(0, 5); j++) {
    93a0:	e3a03000 	mov	r3, #0
    93a4:	e50b3034 	str	r3, [fp, #-52]	; 0xffffffcc
/home/schenkj/os2022/sp/sources/userspace/sp_task/main.cpp:377 (discriminator 3)
    93a8:	e3a01005 	mov	r1, #5
    93ac:	e3a00000 	mov	r0, #0
    93b0:	ebfffe34 	bl	8c88 <_Z12pseudoRandomii>
    93b4:	e1a02000 	mov	r2, r0
    93b8:	e51b3034 	ldr	r3, [fp, #-52]	; 0xffffffcc
    93bc:	e1530002 	cmp	r3, r2
    93c0:	b3a03001 	movlt	r3, #1
    93c4:	a3a03000 	movge	r3, #0
    93c8:	e6ef3073 	uxtb	r3, r3
    93cc:	e3530000 	cmp	r3, #0
    93d0:	0a000013 	beq	9424 <_Z5countv+0x414>
/home/schenkj/os2022/sp/sources/userspace/sp_task/main.cpp:379 (discriminator 2)
				//random position
				int a = pseudoRandom(0, 4);		//with random member of population
    93d4:	e3a01004 	mov	r1, #4
    93d8:	e3a00000 	mov	r0, #0
    93dc:	ebfffe29 	bl	8c88 <_Z12pseudoRandomii>
    93e0:	e50b0048 	str	r0, [fp, #-72]	; 0xffffffb8
/home/schenkj/os2022/sp/sources/userspace/sp_task/main.cpp:380 (discriminator 2)
				genIs(i, a, gen(pseudoRandom(0, POPULATION), a));
    93e4:	e3a01032 	mov	r1, #50	; 0x32
    93e8:	e3a00000 	mov	r0, #0
    93ec:	ebfffe25 	bl	8c88 <_Z12pseudoRandomii>
    93f0:	e1a03000 	mov	r3, r0
    93f4:	e51b1048 	ldr	r1, [fp, #-72]	; 0xffffffb8
    93f8:	e1a00003 	mov	r0, r3
    93fc:	ebfffb8b 	bl	8230 <_Z3genii>
    9400:	eef07a40 	vmov.f32	s15, s0
    9404:	eeb00a67 	vmov.f32	s0, s15
    9408:	e51b1048 	ldr	r1, [fp, #-72]	; 0xffffffb8
    940c:	e51b0030 	ldr	r0, [fp, #-48]	; 0xffffffd0
    9410:	ebfffbc3 	bl	8324 <_Z5genIsiif>
/home/schenkj/os2022/sp/sources/userspace/sp_task/main.cpp:377 (discriminator 2)
			for (int j = 0; j < pseudoRandom(0, 5); j++) {
    9414:	e51b3034 	ldr	r3, [fp, #-52]	; 0xffffffcc
    9418:	e2833001 	add	r3, r3, #1
    941c:	e50b3034 	str	r3, [fp, #-52]	; 0xffffffcc
    9420:	eaffffe0 	b	93a8 <_Z5countv+0x398>
/home/schenkj/os2022/sp/sources/userspace/sp_task/main.cpp:374 (discriminator 2)
		for (int i = 0; i < POPULATION; i++) {
    9424:	e51b3030 	ldr	r3, [fp, #-48]	; 0xffffffd0
    9428:	e2833001 	add	r3, r3, #1
    942c:	e50b3030 	str	r3, [fp, #-48]	; 0xffffffd0
    9430:	eaffffd7 	b	9394 <_Z5countv+0x384>
/home/schenkj/os2022/sp/sources/userspace/sp_task/main.cpp:385
			}
		}
		
		//mutaion - for each member of population
		for (int i = 0; i < POPULATION; i++) {
    9434:	e3a03000 	mov	r3, #0
    9438:	e50b3038 	str	r3, [fp, #-56]	; 0xffffffc8
/home/schenkj/os2022/sp/sources/userspace/sp_task/main.cpp:385 (discriminator 1)
    943c:	e51b3038 	ldr	r3, [fp, #-56]	; 0xffffffc8
    9440:	e3530031 	cmp	r3, #49	; 0x31
    9444:	8a000024 	bhi	94dc <_Z5countv+0x4cc>
/home/schenkj/os2022/sp/sources/userspace/sp_task/main.cpp:387
			//there is chance to mutate (chance is PROBABILITY_OF_MUTAION_PERCENT)
			if (pseudoRandom(0, 100) <= PROBABILITY_OF_MUTAION_PERCENT) {
    9448:	e3a01064 	mov	r1, #100	; 0x64
    944c:	e3a00000 	mov	r0, #0
    9450:	ebfffe0c 	bl	8c88 <_Z12pseudoRandomii>
    9454:	e1a03000 	mov	r3, r0
    9458:	e353000a 	cmp	r3, #10
    945c:	93a03001 	movls	r3, #1
    9460:	83a03000 	movhi	r3, #0
    9464:	e6ef3073 	uxtb	r3, r3
    9468:	e3530000 	cmp	r3, #0
    946c:	0a000016 	beq	94cc <_Z5countv+0x4bc>
/home/schenkj/os2022/sp/sources/userspace/sp_task/main.cpp:389
				//then one of its parameters mutates
				float tmpGen = gen(i,pseudoRandom(0, 4)) + pseudoRandom(0-RANDOM_RANGE/5, RANDOM_RANGE/5);
    9470:	e3a01004 	mov	r1, #4
    9474:	e3a00000 	mov	r0, #0
    9478:	ebfffe02 	bl	8c88 <_Z12pseudoRandomii>
    947c:	e1a03000 	mov	r3, r0
    9480:	e1a01003 	mov	r1, r3
    9484:	e51b0038 	ldr	r0, [fp, #-56]	; 0xffffffc8
    9488:	ebfffb68 	bl	8230 <_Z3genii>
    948c:	eeb08a40 	vmov.f32	s16, s0
    9490:	e3a0100a 	mov	r1, #10
    9494:	e3e00009 	mvn	r0, #9
    9498:	ebfffdfa 	bl	8c88 <_Z12pseudoRandomii>
    949c:	ee070a90 	vmov	s15, r0
    94a0:	eef87ae7 	vcvt.f32.s32	s15, s15
    94a4:	ee787a27 	vadd.f32	s15, s16, s15
    94a8:	ed4b7a13 	vstr	s15, [fp, #-76]	; 0xffffffb4
/home/schenkj/os2022/sp/sources/userspace/sp_task/main.cpp:390
				genIs(i,pseudoRandom(0, 4), tmpGen);
    94ac:	e3a01004 	mov	r1, #4
    94b0:	e3a00000 	mov	r0, #0
    94b4:	ebfffdf3 	bl	8c88 <_Z12pseudoRandomii>
    94b8:	e1a03000 	mov	r3, r0
    94bc:	ed1b0a13 	vldr	s0, [fp, #-76]	; 0xffffffb4
    94c0:	e1a01003 	mov	r1, r3
    94c4:	e51b0038 	ldr	r0, [fp, #-56]	; 0xffffffc8
    94c8:	ebfffb95 	bl	8324 <_Z5genIsiif>
/home/schenkj/os2022/sp/sources/userspace/sp_task/main.cpp:385 (discriminator 2)
		for (int i = 0; i < POPULATION; i++) {
    94cc:	e51b3038 	ldr	r3, [fp, #-56]	; 0xffffffc8
    94d0:	e2833001 	add	r3, r3, #1
    94d4:	e50b3038 	str	r3, [fp, #-56]	; 0xffffffc8
    94d8:	eaffffd7 	b	943c <_Z5countv+0x42c>
/home/schenkj/os2022/sp/sources/userspace/sp_task/main.cpp:396
				
			}
		}
		
		//check if there is not stop in console
		console_in(32, false);
    94dc:	e3a01000 	mov	r1, #0
    94e0:	e3a00020 	mov	r0, #32
    94e4:	ebfffc01 	bl	84f0 <_Z10console_injb>
/home/schenkj/os2022/sp/sources/userspace/sp_task/main.cpp:397
		if(checkForStop(readValue, 32)){
    94e8:	e3a01020 	mov	r1, #32
    94ec:	e59f0150 	ldr	r0, [pc, #336]	; 9644 <_Z5countv+0x634>
    94f0:	ebfffbcc 	bl	8428 <_Z12checkForStopPcj>
    94f4:	e1a03000 	mov	r3, r0
    94f8:	e3530000 	cmp	r3, #0
    94fc:	0a000024 	beq	9594 <_Z5countv+0x584>
/home/schenkj/os2022/sp/sources/userspace/sp_task/main.cpp:398
			next_y = getY(val_counter + 1, values[val_counter - 1], values[val_counter - 2], old_best_params);
    9500:	e59f3124 	ldr	r3, [pc, #292]	; 962c <_Z5countv+0x61c>
    9504:	e5933000 	ldr	r3, [r3]
    9508:	e2833001 	add	r3, r3, #1
    950c:	e1a00003 	mov	r0, r3
    9510:	e59f3128 	ldr	r3, [pc, #296]	; 9640 <_Z5countv+0x630>
    9514:	e5932000 	ldr	r2, [r3]
    9518:	e59f310c 	ldr	r3, [pc, #268]	; 962c <_Z5countv+0x61c>
    951c:	e5933000 	ldr	r3, [r3]
    9520:	e2433107 	sub	r3, r3, #-1073741823	; 0xc0000001
    9524:	e1a03103 	lsl	r3, r3, #2
    9528:	e0823003 	add	r3, r2, r3
    952c:	edd37a00 	vldr	s15, [r3]
    9530:	e59f3108 	ldr	r3, [pc, #264]	; 9640 <_Z5countv+0x630>
    9534:	e5932000 	ldr	r2, [r3]
    9538:	e59f30ec 	ldr	r3, [pc, #236]	; 962c <_Z5countv+0x61c>
    953c:	e5933000 	ldr	r3, [r3]
    9540:	e243310b 	sub	r3, r3, #-1073741822	; 0xc0000002
    9544:	e1a03103 	lsl	r3, r3, #2
    9548:	e0823003 	add	r3, r2, r3
    954c:	ed937a00 	vldr	s14, [r3]
    9550:	e59f30c8 	ldr	r3, [pc, #200]	; 9620 <_Z5countv+0x610>
    9554:	e5933000 	ldr	r3, [r3]
    9558:	e1a01003 	mov	r1, r3
    955c:	eef00a47 	vmov.f32	s1, s14
    9560:	eeb00a67 	vmov.f32	s0, s15
    9564:	ebfffe24 	bl	8dfc <_Z4getYiffPf>
    9568:	ed0b0a07 	vstr	s0, [fp, #-28]	; 0xffffffe4
/home/schenkj/os2022/sp/sources/userspace/sp_task/main.cpp:399
			best_params = old_best_params;
    956c:	e59f30ac 	ldr	r3, [pc, #172]	; 9620 <_Z5countv+0x610>
    9570:	e5933000 	ldr	r3, [r3]
    9574:	e59f20a0 	ldr	r2, [pc, #160]	; 961c <_Z5countv+0x60c>
    9578:	e5823000 	str	r3, [r2]
/home/schenkj/os2022/sp/sources/userspace/sp_task/main.cpp:400
			best = get_fitness(old_best_params);			
    957c:	e59f309c 	ldr	r3, [pc, #156]	; 9620 <_Z5countv+0x610>
    9580:	e5933000 	ldr	r3, [r3]
    9584:	e1a00003 	mov	r0, r3
    9588:	ebfffe41 	bl	8e94 <_Z11get_fitnessPf>
    958c:	ed0b0a06 	vstr	s0, [fp, #-24]	; 0xffffffe8
    9590:	ea000003 	b	95a4 <_Z5countv+0x594>
/home/schenkj/os2022/sp/sources/userspace/sp_task/main.cpp:335
	for (int i = 0; i < GEN_COUNT; i++) {
    9594:	e51b3024 	ldr	r3, [fp, #-36]	; 0xffffffdc
    9598:	e2833001 	add	r3, r3, #1
    959c:	e50b3024 	str	r3, [fp, #-36]	; 0xffffffdc
    95a0:	eafffeef 	b	9164 <_Z5countv+0x154>
/home/schenkj/os2022/sp/sources/userspace/sp_task/main.cpp:407
		}

	}

	//write out info from this run
	char* bestChar = reinterpret_cast<char*>(malloc(16));
    95a4:	e3a00010 	mov	r0, #16
    95a8:	eb000283 	bl	9fbc <_Z6mallocj>
    95ac:	e50b0050 	str	r0, [fp, #-80]	; 0xffffffb0
/home/schenkj/os2022/sp/sources/userspace/sp_task/main.cpp:408
	ftoa(bestChar, best);	
    95b0:	ed1b0a06 	vldr	s0, [fp, #-24]	; 0xffffffe8
    95b4:	e51b0050 	ldr	r0, [fp, #-80]	; 0xffffffb0
    95b8:	eb0003f3 	bl	a58c <_Z4ftoaPcf>
/home/schenkj/os2022/sp/sources/userspace/sp_task/main.cpp:409
	write(uartFile, "Best Fit: ", 10);
    95bc:	e59f306c 	ldr	r3, [pc, #108]	; 9630 <_Z5countv+0x620>
    95c0:	e5933000 	ldr	r3, [r3]
    95c4:	e3a0200a 	mov	r2, #10
    95c8:	e59f1078 	ldr	r1, [pc, #120]	; 9648 <_Z5countv+0x638>
    95cc:	e1a00003 	mov	r0, r3
    95d0:	eb0001a4 	bl	9c68 <_Z5writejPKcj>
/home/schenkj/os2022/sp/sources/userspace/sp_task/main.cpp:410
	write(uartFile, bestChar, 16);
    95d4:	e59f3054 	ldr	r3, [pc, #84]	; 9630 <_Z5countv+0x620>
    95d8:	e5933000 	ldr	r3, [r3]
    95dc:	e3a02010 	mov	r2, #16
    95e0:	e51b1050 	ldr	r1, [fp, #-80]	; 0xffffffb0
    95e4:	e1a00003 	mov	r0, r3
    95e8:	eb00019e 	bl	9c68 <_Z5writejPKcj>
/home/schenkj/os2022/sp/sources/userspace/sp_task/main.cpp:411
	write(uartFile, "\n", 1);
    95ec:	e59f303c 	ldr	r3, [pc, #60]	; 9630 <_Z5countv+0x620>
    95f0:	e5933000 	ldr	r3, [r3]
    95f4:	e3a02001 	mov	r2, #1
    95f8:	e59f104c 	ldr	r1, [pc, #76]	; 964c <_Z5countv+0x63c>
    95fc:	e1a00003 	mov	r0, r3
    9600:	eb000198 	bl	9c68 <_Z5writejPKcj>
/home/schenkj/os2022/sp/sources/userspace/sp_task/main.cpp:413
	
	return next_y;
    9604:	e51b301c 	ldr	r3, [fp, #-28]	; 0xffffffe4
    9608:	ee073a90 	vmov	s15, r3
/home/schenkj/os2022/sp/sources/userspace/sp_task/main.cpp:414 (discriminator 2)
}
    960c:	eeb00a67 	vmov.f32	s0, s15
    9610:	e24bd010 	sub	sp, fp, #16
    9614:	ecbd8b02 	vpop	{d8}
    9618:	e8bd8810 	pop	{r4, fp, pc}
    961c:	0000b920 	andeq	fp, r0, r0, lsr #18
    9620:	0000b924 	andeq	fp, r0, r4, lsr #18
    9624:	0000b46c 	andeq	fp, r0, ip, ror #8
    9628:	0000b468 	andeq	fp, r0, r8, ror #8
    962c:	0000b478 	andeq	fp, r0, r8, ror r4
    9630:	0000b914 	andeq	fp, r0, r4, lsl r9
    9634:	0000b23c 	andeq	fp, r0, ip, lsr r2
    9638:	bf800000 	svclt	0x00800000
    963c:	0000b864 	andeq	fp, r0, r4, ror #16
    9640:	0000b474 	andeq	fp, r0, r4, ror r4
    9644:	0000b86c 	andeq	fp, r0, ip, ror #16
    9648:	0000b250 	andeq	fp, r0, r0, asr r2
    964c:	0000b1e4 	andeq	fp, r0, r4, ror #3

00009650 <_Z10printParamv>:
_Z10printParamv():
/home/schenkj/os2022/sp/sources/userspace/sp_task/main.cpp:417

//function to write parameters
void printParam(){
    9650:	e92d4800 	push	{fp, lr}
    9654:	e28db004 	add	fp, sp, #4
    9658:	e24dd018 	sub	sp, sp, #24
/home/schenkj/os2022/sp/sources/userspace/sp_task/main.cpp:420

	//alloc space
	char* a =  reinterpret_cast<char*>(malloc(16));
    965c:	e3a00010 	mov	r0, #16
    9660:	eb000255 	bl	9fbc <_Z6mallocj>
    9664:	e50b0008 	str	r0, [fp, #-8]
/home/schenkj/os2022/sp/sources/userspace/sp_task/main.cpp:421
	char*  b =  reinterpret_cast<char*>(malloc(16));
    9668:	e3a00010 	mov	r0, #16
    966c:	eb000252 	bl	9fbc <_Z6mallocj>
    9670:	e50b000c 	str	r0, [fp, #-12]
/home/schenkj/os2022/sp/sources/userspace/sp_task/main.cpp:422
	char*  c =  reinterpret_cast<char*>(malloc(16));
    9674:	e3a00010 	mov	r0, #16
    9678:	eb00024f 	bl	9fbc <_Z6mallocj>
    967c:	e50b0010 	str	r0, [fp, #-16]
/home/schenkj/os2022/sp/sources/userspace/sp_task/main.cpp:423
	char*  d =  reinterpret_cast<char*>(malloc(16));
    9680:	e3a00010 	mov	r0, #16
    9684:	eb00024c 	bl	9fbc <_Z6mallocj>
    9688:	e50b0014 	str	r0, [fp, #-20]	; 0xffffffec
/home/schenkj/os2022/sp/sources/userspace/sp_task/main.cpp:424
	char*  e =  reinterpret_cast<char*>(malloc(16));
    968c:	e3a00010 	mov	r0, #16
    9690:	eb000249 	bl	9fbc <_Z6mallocj>
    9694:	e50b0018 	str	r0, [fp, #-24]	; 0xffffffe8
/home/schenkj/os2022/sp/sources/userspace/sp_task/main.cpp:426
	//clear
	bzero(a, 16);
    9698:	e3a01010 	mov	r1, #16
    969c:	e51b0008 	ldr	r0, [fp, #-8]
    96a0:	eb0004ec 	bl	aa58 <_Z5bzeroPvi>
/home/schenkj/os2022/sp/sources/userspace/sp_task/main.cpp:427
	bzero(b, 16);
    96a4:	e3a01010 	mov	r1, #16
    96a8:	e51b000c 	ldr	r0, [fp, #-12]
    96ac:	eb0004e9 	bl	aa58 <_Z5bzeroPvi>
/home/schenkj/os2022/sp/sources/userspace/sp_task/main.cpp:428
	bzero(c, 16);
    96b0:	e3a01010 	mov	r1, #16
    96b4:	e51b0010 	ldr	r0, [fp, #-16]
    96b8:	eb0004e6 	bl	aa58 <_Z5bzeroPvi>
/home/schenkj/os2022/sp/sources/userspace/sp_task/main.cpp:429
	bzero(d, 16);
    96bc:	e3a01010 	mov	r1, #16
    96c0:	e51b0014 	ldr	r0, [fp, #-20]	; 0xffffffec
    96c4:	eb0004e3 	bl	aa58 <_Z5bzeroPvi>
/home/schenkj/os2022/sp/sources/userspace/sp_task/main.cpp:430
	bzero(e, 16);
    96c8:	e3a01010 	mov	r1, #16
    96cc:	e51b0018 	ldr	r0, [fp, #-24]	; 0xffffffe8
    96d0:	eb0004e0 	bl	aa58 <_Z5bzeroPvi>
/home/schenkj/os2022/sp/sources/userspace/sp_task/main.cpp:432
	//make strings from floats
	ftoa(a, best_params[0]);
    96d4:	e59f3194 	ldr	r3, [pc, #404]	; 9870 <_Z10printParamv+0x220>
    96d8:	e5933000 	ldr	r3, [r3]
    96dc:	edd37a00 	vldr	s15, [r3]
    96e0:	eeb00a67 	vmov.f32	s0, s15
    96e4:	e51b0008 	ldr	r0, [fp, #-8]
    96e8:	eb0003a7 	bl	a58c <_Z4ftoaPcf>
/home/schenkj/os2022/sp/sources/userspace/sp_task/main.cpp:433
	ftoa(b, best_params[1]);
    96ec:	e59f317c 	ldr	r3, [pc, #380]	; 9870 <_Z10printParamv+0x220>
    96f0:	e5933000 	ldr	r3, [r3]
    96f4:	e2833004 	add	r3, r3, #4
    96f8:	edd37a00 	vldr	s15, [r3]
    96fc:	eeb00a67 	vmov.f32	s0, s15
    9700:	e51b000c 	ldr	r0, [fp, #-12]
    9704:	eb0003a0 	bl	a58c <_Z4ftoaPcf>
/home/schenkj/os2022/sp/sources/userspace/sp_task/main.cpp:434
	ftoa(c, best_params[2]);
    9708:	e59f3160 	ldr	r3, [pc, #352]	; 9870 <_Z10printParamv+0x220>
    970c:	e5933000 	ldr	r3, [r3]
    9710:	e2833008 	add	r3, r3, #8
    9714:	edd37a00 	vldr	s15, [r3]
    9718:	eeb00a67 	vmov.f32	s0, s15
    971c:	e51b0010 	ldr	r0, [fp, #-16]
    9720:	eb000399 	bl	a58c <_Z4ftoaPcf>
/home/schenkj/os2022/sp/sources/userspace/sp_task/main.cpp:435
	ftoa(d, best_params[3]);
    9724:	e59f3144 	ldr	r3, [pc, #324]	; 9870 <_Z10printParamv+0x220>
    9728:	e5933000 	ldr	r3, [r3]
    972c:	e283300c 	add	r3, r3, #12
    9730:	edd37a00 	vldr	s15, [r3]
    9734:	eeb00a67 	vmov.f32	s0, s15
    9738:	e51b0014 	ldr	r0, [fp, #-20]	; 0xffffffec
    973c:	eb000392 	bl	a58c <_Z4ftoaPcf>
/home/schenkj/os2022/sp/sources/userspace/sp_task/main.cpp:436
	ftoa(e, best_params[4]);
    9740:	e59f3128 	ldr	r3, [pc, #296]	; 9870 <_Z10printParamv+0x220>
    9744:	e5933000 	ldr	r3, [r3]
    9748:	e2833010 	add	r3, r3, #16
    974c:	edd37a00 	vldr	s15, [r3]
    9750:	eeb00a67 	vmov.f32	s0, s15
    9754:	e51b0018 	ldr	r0, [fp, #-24]	; 0xffffffe8
    9758:	eb00038b 	bl	a58c <_Z4ftoaPcf>
/home/schenkj/os2022/sp/sources/userspace/sp_task/main.cpp:438
	//write strings to console
	write(uartFile, "A = ", 4);
    975c:	e59f3110 	ldr	r3, [pc, #272]	; 9874 <_Z10printParamv+0x224>
    9760:	e5933000 	ldr	r3, [r3]
    9764:	e3a02004 	mov	r2, #4
    9768:	e59f1108 	ldr	r1, [pc, #264]	; 9878 <_Z10printParamv+0x228>
    976c:	e1a00003 	mov	r0, r3
    9770:	eb00013c 	bl	9c68 <_Z5writejPKcj>
/home/schenkj/os2022/sp/sources/userspace/sp_task/main.cpp:439
	write(uartFile, reinterpret_cast<const char*>(a), 16);
    9774:	e59f30f8 	ldr	r3, [pc, #248]	; 9874 <_Z10printParamv+0x224>
    9778:	e5933000 	ldr	r3, [r3]
    977c:	e3a02010 	mov	r2, #16
    9780:	e51b1008 	ldr	r1, [fp, #-8]
    9784:	e1a00003 	mov	r0, r3
    9788:	eb000136 	bl	9c68 <_Z5writejPKcj>
/home/schenkj/os2022/sp/sources/userspace/sp_task/main.cpp:440
	write(uartFile, ", B = ", 6);
    978c:	e59f30e0 	ldr	r3, [pc, #224]	; 9874 <_Z10printParamv+0x224>
    9790:	e5933000 	ldr	r3, [r3]
    9794:	e3a02006 	mov	r2, #6
    9798:	e59f10dc 	ldr	r1, [pc, #220]	; 987c <_Z10printParamv+0x22c>
    979c:	e1a00003 	mov	r0, r3
    97a0:	eb000130 	bl	9c68 <_Z5writejPKcj>
/home/schenkj/os2022/sp/sources/userspace/sp_task/main.cpp:441
	write(uartFile, reinterpret_cast<const char*>(b), 16);
    97a4:	e59f30c8 	ldr	r3, [pc, #200]	; 9874 <_Z10printParamv+0x224>
    97a8:	e5933000 	ldr	r3, [r3]
    97ac:	e3a02010 	mov	r2, #16
    97b0:	e51b100c 	ldr	r1, [fp, #-12]
    97b4:	e1a00003 	mov	r0, r3
    97b8:	eb00012a 	bl	9c68 <_Z5writejPKcj>
/home/schenkj/os2022/sp/sources/userspace/sp_task/main.cpp:442
	write(uartFile, ", C = ", 6);
    97bc:	e59f30b0 	ldr	r3, [pc, #176]	; 9874 <_Z10printParamv+0x224>
    97c0:	e5933000 	ldr	r3, [r3]
    97c4:	e3a02006 	mov	r2, #6
    97c8:	e59f10b0 	ldr	r1, [pc, #176]	; 9880 <_Z10printParamv+0x230>
    97cc:	e1a00003 	mov	r0, r3
    97d0:	eb000124 	bl	9c68 <_Z5writejPKcj>
/home/schenkj/os2022/sp/sources/userspace/sp_task/main.cpp:443
	write(uartFile, reinterpret_cast<const char*>(c), 16);
    97d4:	e59f3098 	ldr	r3, [pc, #152]	; 9874 <_Z10printParamv+0x224>
    97d8:	e5933000 	ldr	r3, [r3]
    97dc:	e3a02010 	mov	r2, #16
    97e0:	e51b1010 	ldr	r1, [fp, #-16]
    97e4:	e1a00003 	mov	r0, r3
    97e8:	eb00011e 	bl	9c68 <_Z5writejPKcj>
/home/schenkj/os2022/sp/sources/userspace/sp_task/main.cpp:444
	write(uartFile, ", D = ", 6);
    97ec:	e59f3080 	ldr	r3, [pc, #128]	; 9874 <_Z10printParamv+0x224>
    97f0:	e5933000 	ldr	r3, [r3]
    97f4:	e3a02006 	mov	r2, #6
    97f8:	e59f1084 	ldr	r1, [pc, #132]	; 9884 <_Z10printParamv+0x234>
    97fc:	e1a00003 	mov	r0, r3
    9800:	eb000118 	bl	9c68 <_Z5writejPKcj>
/home/schenkj/os2022/sp/sources/userspace/sp_task/main.cpp:445
	write(uartFile, reinterpret_cast<const char*>(d), 16);
    9804:	e59f3068 	ldr	r3, [pc, #104]	; 9874 <_Z10printParamv+0x224>
    9808:	e5933000 	ldr	r3, [r3]
    980c:	e3a02010 	mov	r2, #16
    9810:	e51b1014 	ldr	r1, [fp, #-20]	; 0xffffffec
    9814:	e1a00003 	mov	r0, r3
    9818:	eb000112 	bl	9c68 <_Z5writejPKcj>
/home/schenkj/os2022/sp/sources/userspace/sp_task/main.cpp:446
	write(uartFile, ", E = ", 6);
    981c:	e59f3050 	ldr	r3, [pc, #80]	; 9874 <_Z10printParamv+0x224>
    9820:	e5933000 	ldr	r3, [r3]
    9824:	e3a02006 	mov	r2, #6
    9828:	e59f1058 	ldr	r1, [pc, #88]	; 9888 <_Z10printParamv+0x238>
    982c:	e1a00003 	mov	r0, r3
    9830:	eb00010c 	bl	9c68 <_Z5writejPKcj>
/home/schenkj/os2022/sp/sources/userspace/sp_task/main.cpp:447
	write(uartFile, reinterpret_cast<const char*>(e), 16);
    9834:	e59f3038 	ldr	r3, [pc, #56]	; 9874 <_Z10printParamv+0x224>
    9838:	e5933000 	ldr	r3, [r3]
    983c:	e3a02010 	mov	r2, #16
    9840:	e51b1018 	ldr	r1, [fp, #-24]	; 0xffffffe8
    9844:	e1a00003 	mov	r0, r3
    9848:	eb000106 	bl	9c68 <_Z5writejPKcj>
/home/schenkj/os2022/sp/sources/userspace/sp_task/main.cpp:448
	write(uartFile, "\n", 1);
    984c:	e59f3020 	ldr	r3, [pc, #32]	; 9874 <_Z10printParamv+0x224>
    9850:	e5933000 	ldr	r3, [r3]
    9854:	e3a02001 	mov	r2, #1
    9858:	e59f102c 	ldr	r1, [pc, #44]	; 988c <_Z10printParamv+0x23c>
    985c:	e1a00003 	mov	r0, r3
    9860:	eb000100 	bl	9c68 <_Z5writejPKcj>
/home/schenkj/os2022/sp/sources/userspace/sp_task/main.cpp:449
}
    9864:	e320f000 	nop	{0}
    9868:	e24bd004 	sub	sp, fp, #4
    986c:	e8bd8800 	pop	{fp, pc}
    9870:	0000b920 	andeq	fp, r0, r0, lsr #18
    9874:	0000b914 	andeq	fp, r0, r4, lsl r9
    9878:	0000b25c 	andeq	fp, r0, ip, asr r2
    987c:	0000b264 	andeq	fp, r0, r4, ror #4
    9880:	0000b26c 	andeq	fp, r0, ip, ror #4
    9884:	0000b274 	andeq	fp, r0, r4, ror r2
    9888:	0000b27c 	andeq	fp, r0, ip, ror r2
    988c:	0000b1e4 	andeq	fp, r0, r4, ror #3

00009890 <main>:
main():
/home/schenkj/os2022/sp/sources/userspace/sp_task/main.cpp:454


//main function - start of program
int main(int argc, char** argv)
{
    9890:	e92d4800 	push	{fp, lr}
    9894:	e28db004 	add	fp, sp, #4
    9898:	e24dd030 	sub	sp, sp, #48	; 0x30
    989c:	e50b0030 	str	r0, [fp, #-48]	; 0xffffffd0
    98a0:	e50b1034 	str	r1, [fp, #-52]	; 0xffffffcc
/home/schenkj/os2022/sp/sources/userspace/sp_task/main.cpp:456
	//inicialization of necessary variables
	stop = false;
    98a4:	e59f31d0 	ldr	r3, [pc, #464]	; 9a7c <main+0x1ec>
    98a8:	e3a02000 	mov	r2, #0
    98ac:	e5c32000 	strb	r2, [r3]
/home/schenkj/os2022/sp/sources/userspace/sp_task/main.cpp:457
	bzero(best_params, 5*sizeof(float));
    98b0:	e59f31c8 	ldr	r3, [pc, #456]	; 9a80 <main+0x1f0>
    98b4:	e5933000 	ldr	r3, [r3]
    98b8:	e3a01014 	mov	r1, #20
    98bc:	e1a00003 	mov	r0, r3
    98c0:	eb000464 	bl	aa58 <_Z5bzeroPvi>
/home/schenkj/os2022/sp/sources/userspace/sp_task/main.cpp:460
    uint32_t len;
	//open console file
	uartFile = open("DEV:uart/0", NFile_Open_Mode::Read_Write);
    98c4:	e3a01002 	mov	r1, #2
    98c8:	e59f01b4 	ldr	r0, [pc, #436]	; 9a84 <main+0x1f4>
    98cc:	eb0000c0 	bl	9bd4 <_Z4openPKc15NFile_Open_Mode>
    98d0:	e1a03000 	mov	r3, r0
    98d4:	e59f21ac 	ldr	r2, [pc, #428]	; 9a88 <main+0x1f8>
    98d8:	e5823000 	str	r3, [r2]
/home/schenkj/os2022/sp/sources/userspace/sp_task/main.cpp:464
	
	//irq enable
	TUART_IOCtl_Params params;
    params.interruptType = NUART_Interrupt_Type::RX;
    98dc:	e3a03000 	mov	r3, #0
    98e0:	e50b3028 	str	r3, [fp, #-40]	; 0xffffffd8
/home/schenkj/os2022/sp/sources/userspace/sp_task/main.cpp:465
    ioctl(uartFile, NIOCtl_Operation::Enable_Event_Detection, &params);
    98e4:	e59f319c 	ldr	r3, [pc, #412]	; 9a88 <main+0x1f8>
    98e8:	e5933000 	ldr	r3, [r3]
    98ec:	e24b2028 	sub	r2, fp, #40	; 0x28
    98f0:	e3a01002 	mov	r1, #2
    98f4:	e1a00003 	mov	r0, r3
    98f8:	eb0000f9 	bl	9ce4 <_Z5ioctlj16NIOCtl_OperationPv>
/home/schenkj/os2022/sp/sources/userspace/sp_task/main.cpp:468

	//open random file
	rnd = open("DEV:trng", NFile_Open_Mode::Read_Only);
    98fc:	e3a01000 	mov	r1, #0
    9900:	e59f0184 	ldr	r0, [pc, #388]	; 9a8c <main+0x1fc>
    9904:	eb0000b2 	bl	9bd4 <_Z4openPKc15NFile_Open_Mode>
    9908:	e1a03000 	mov	r3, r0
    990c:	e59f217c 	ldr	r2, [pc, #380]	; 9a90 <main+0x200>
    9910:	e5823000 	str	r3, [r2]
/home/schenkj/os2022/sp/sources/userspace/sp_task/main.cpp:469
	val_counter = 0;
    9914:	e59f3178 	ldr	r3, [pc, #376]	; 9a94 <main+0x204>
    9918:	e3a02000 	mov	r2, #0
    991c:	e5832000 	str	r2, [r3]
/home/schenkj/os2022/sp/sources/userspace/sp_task/main.cpp:472

	//write out start info
	const char* start_text = "CalcOS v1.1\nAutor: Jakub Schenk (A21N0069P)\nZadejte nejprve casovy rozestup a predikcni okenko v minutach\nDale podporovane prikazy: stop, parameters\n";
    9920:	e59f3170 	ldr	r3, [pc, #368]	; 9a98 <main+0x208>
    9924:	e50b3008 	str	r3, [fp, #-8]
/home/schenkj/os2022/sp/sources/userspace/sp_task/main.cpp:473
	write(uartFile, start_text, 152);
    9928:	e59f3158 	ldr	r3, [pc, #344]	; 9a88 <main+0x1f8>
    992c:	e5933000 	ldr	r3, [r3]
    9930:	e3a02098 	mov	r2, #152	; 0x98
    9934:	e51b1008 	ldr	r1, [fp, #-8]
    9938:	e1a00003 	mov	r0, r3
    993c:	eb0000c9 	bl	9c68 <_Z5writejPKcj>
/home/schenkj/os2022/sp/sources/userspace/sp_task/main.cpp:477
    float next_y;

	//read first two params - delta and prediction
	read_param();
    9940:	ebfffb72 	bl	8710 <_Z10read_paramv>
/home/schenkj/os2022/sp/sources/userspace/sp_task/main.cpp:480

	//start 2nd part of program - counting based on incomming values
	const char* print_out = "Zadejte prosim \"stop\", \"parameters\" nebo desetinne cislo.\n";
    9944:	e59f3150 	ldr	r3, [pc, #336]	; 9a9c <main+0x20c>
    9948:	e50b300c 	str	r3, [fp, #-12]
/home/schenkj/os2022/sp/sources/userspace/sp_task/main.cpp:481
    write(uartFile, print_out, 58);
    994c:	e59f3134 	ldr	r3, [pc, #308]	; 9a88 <main+0x1f8>
    9950:	e5933000 	ldr	r3, [r3]
    9954:	e3a0203a 	mov	r2, #58	; 0x3a
    9958:	e51b100c 	ldr	r1, [fp, #-12]
    995c:	e1a00003 	mov	r0, r3
    9960:	eb0000c0 	bl	9c68 <_Z5writejPKcj>
/home/schenkj/os2022/sp/sources/userspace/sp_task/main.cpp:485

	while (true) {
		//read new value
		uint32_t in = read_input();
    9964:	ebfffc15 	bl	89c0 <_Z10read_inputv>
    9968:	e50b0010 	str	r0, [fp, #-16]
/home/schenkj/os2022/sp/sources/userspace/sp_task/main.cpp:488
		//new value is in values[val_counter-1], in=was it success?

		if (in == 1)	//stop
    996c:	e51b3010 	ldr	r3, [fp, #-16]
    9970:	e3530001 	cmp	r3, #1
    9974:	0a00003b 	beq	9a68 <main+0x1d8>
/home/schenkj/os2022/sp/sources/userspace/sp_task/main.cpp:490
			break;
		else if (in == 2){	//parameters
    9978:	e51b3010 	ldr	r3, [fp, #-16]
    997c:	e3530002 	cmp	r3, #2
    9980:	1a000001 	bne	998c <main+0xfc>
/home/schenkj/os2022/sp/sources/userspace/sp_task/main.cpp:491
			printParam();		
    9984:	ebffff31 	bl	9650 <_Z10printParamv>
    9988:	ea000029 	b	9a34 <main+0x1a4>
/home/schenkj/os2022/sp/sources/userspace/sp_task/main.cpp:493
		}
		else if (in == 3) {	//unknown string
    998c:	e51b3010 	ldr	r3, [fp, #-16]
    9990:	e3530003 	cmp	r3, #3
    9994:	1a000008 	bne	99bc <main+0x12c>
/home/schenkj/os2022/sp/sources/userspace/sp_task/main.cpp:494
			const char* print_out = "Zadejte prosim \"stop\", \"parameters\" nebo desetinne cislo.\n";
    9998:	e59f30fc 	ldr	r3, [pc, #252]	; 9a9c <main+0x20c>
    999c:	e50b301c 	str	r3, [fp, #-28]	; 0xffffffe4
/home/schenkj/os2022/sp/sources/userspace/sp_task/main.cpp:495
			write(uartFile, print_out, 58);
    99a0:	e59f30e0 	ldr	r3, [pc, #224]	; 9a88 <main+0x1f8>
    99a4:	e5933000 	ldr	r3, [r3]
    99a8:	e3a0203a 	mov	r2, #58	; 0x3a
    99ac:	e51b101c 	ldr	r1, [fp, #-28]	; 0xffffffe4
    99b0:	e1a00003 	mov	r0, r3
    99b4:	eb0000ab 	bl	9c68 <_Z5writejPKcj>
/home/schenkj/os2022/sp/sources/userspace/sp_task/main.cpp:496
			continue;
    99b8:	ea000029 	b	9a64 <main+0x1d4>
/home/schenkj/os2022/sp/sources/userspace/sp_task/main.cpp:499
		}
		else {	//number came -> we can try to count predicted y
			next_y = count();
    99bc:	ebfffd93 	bl	9010 <_Z5countv>
    99c0:	ed0b0a05 	vstr	s0, [fp, #-20]	; 0xffffffec
/home/schenkj/os2022/sp/sources/userspace/sp_task/main.cpp:503
			
			//so that was counted -> next y (predicted)
			char* next_yChar;
			ftoa(next_yChar, next_y);
    99c4:	ed1b0a05 	vldr	s0, [fp, #-20]	; 0xffffffec
    99c8:	e51b0018 	ldr	r0, [fp, #-24]	; 0xffffffe8
    99cc:	eb0002ee 	bl	a58c <_Z4ftoaPcf>
/home/schenkj/os2022/sp/sources/userspace/sp_task/main.cpp:506

			//write what was predicted
			write(uartFile, "Predicted Y in the future is: ", 30);
    99d0:	e59f30b0 	ldr	r3, [pc, #176]	; 9a88 <main+0x1f8>
    99d4:	e5933000 	ldr	r3, [r3]
    99d8:	e3a0201e 	mov	r2, #30
    99dc:	e59f10bc 	ldr	r1, [pc, #188]	; 9aa0 <main+0x210>
    99e0:	e1a00003 	mov	r0, r3
    99e4:	eb00009f 	bl	9c68 <_Z5writejPKcj>
/home/schenkj/os2022/sp/sources/userspace/sp_task/main.cpp:507
			write(uartFile, next_yChar, 8);
    99e8:	e59f3098 	ldr	r3, [pc, #152]	; 9a88 <main+0x1f8>
    99ec:	e5933000 	ldr	r3, [r3]
    99f0:	e3a02008 	mov	r2, #8
    99f4:	e51b1018 	ldr	r1, [fp, #-24]	; 0xffffffe8
    99f8:	e1a00003 	mov	r0, r3
    99fc:	eb000099 	bl	9c68 <_Z5writejPKcj>
/home/schenkj/os2022/sp/sources/userspace/sp_task/main.cpp:508
            write(uartFile, "\n", 1);
    9a00:	e59f3080 	ldr	r3, [pc, #128]	; 9a88 <main+0x1f8>
    9a04:	e5933000 	ldr	r3, [r3]
    9a08:	e3a02001 	mov	r2, #1
    9a0c:	e59f1090 	ldr	r1, [pc, #144]	; 9aa4 <main+0x214>
    9a10:	e1a00003 	mov	r0, r3
    9a14:	eb000093 	bl	9c68 <_Z5writejPKcj>
/home/schenkj/os2022/sp/sources/userspace/sp_task/main.cpp:511

			//print actual parameters
			printParam();
    9a18:	ebffff0c 	bl	9650 <_Z10printParamv>
/home/schenkj/os2022/sp/sources/userspace/sp_task/main.cpp:512
			write(uartFile, "-------------------------------\n", 32);			
    9a1c:	e59f3064 	ldr	r3, [pc, #100]	; 9a88 <main+0x1f8>
    9a20:	e5933000 	ldr	r3, [r3]
    9a24:	e3a02020 	mov	r2, #32
    9a28:	e59f1078 	ldr	r1, [pc, #120]	; 9aa8 <main+0x218>
    9a2c:	e1a00003 	mov	r0, r3
    9a30:	eb00008c 	bl	9c68 <_Z5writejPKcj>
/home/schenkj/os2022/sp/sources/userspace/sp_task/main.cpp:515
		}
		//if stop was called, exit program
		if(stop){
    9a34:	e59f3040 	ldr	r3, [pc, #64]	; 9a7c <main+0x1ec>
    9a38:	e5d33000 	ldrb	r3, [r3]
    9a3c:	e3530000 	cmp	r3, #0
    9a40:	0affffc7 	beq	9964 <main+0xd4>
/home/schenkj/os2022/sp/sources/userspace/sp_task/main.cpp:516
			write(uartFile, "Program exit with status 1 - stopped with \"stop\".\n", 50);
    9a44:	e59f303c 	ldr	r3, [pc, #60]	; 9a88 <main+0x1f8>
    9a48:	e5933000 	ldr	r3, [r3]
    9a4c:	e3a02032 	mov	r2, #50	; 0x32
    9a50:	e59f1054 	ldr	r1, [pc, #84]	; 9aac <main+0x21c>
    9a54:	e1a00003 	mov	r0, r3
    9a58:	eb000082 	bl	9c68 <_Z5writejPKcj>
/home/schenkj/os2022/sp/sources/userspace/sp_task/main.cpp:517
			return 1;
    9a5c:	e3a03001 	mov	r3, #1
    9a60:	ea000002 	b	9a70 <main+0x1e0>
/home/schenkj/os2022/sp/sources/userspace/sp_task/main.cpp:519
		}
	}
    9a64:	eaffffbe 	b	9964 <main+0xd4>
/home/schenkj/os2022/sp/sources/userspace/sp_task/main.cpp:489
			break;
    9a68:	e320f000 	nop	{0}
/home/schenkj/os2022/sp/sources/userspace/sp_task/main.cpp:520
}	
    9a6c:	e3a03000 	mov	r3, #0
    9a70:	e1a00003 	mov	r0, r3
    9a74:	e24bd004 	sub	sp, fp, #4
    9a78:	e8bd8800 	pop	{fp, pc}
    9a7c:	0000b868 	andeq	fp, r0, r8, ror #16
    9a80:	0000b920 	andeq	fp, r0, r0, lsr #18
    9a84:	0000b284 	andeq	fp, r0, r4, lsl #5
    9a88:	0000b914 	andeq	fp, r0, r4, lsl r9
    9a8c:	0000b290 	muleq	r0, r0, r2
    9a90:	0000b918 	andeq	fp, r0, r8, lsl r9
    9a94:	0000b478 	andeq	fp, r0, r8, ror r4
    9a98:	0000b29c 	muleq	r0, ip, r2
    9a9c:	0000b334 	andeq	fp, r0, r4, lsr r3
    9aa0:	0000b370 	andeq	fp, r0, r0, ror r3
    9aa4:	0000b1e4 	andeq	fp, r0, r4, ror #3
    9aa8:	0000b390 	muleq	r0, r0, r3
    9aac:	0000b3b4 			; <UNDEFINED> instruction: 0x0000b3b4

00009ab0 <_Z41__static_initialization_and_destruction_0ii>:
_Z41__static_initialization_and_destruction_0ii():
/home/schenkj/os2022/sp/sources/userspace/sp_task/main.cpp:520
    9ab0:	e92d4800 	push	{fp, lr}
    9ab4:	e28db004 	add	fp, sp, #4
    9ab8:	e24dd008 	sub	sp, sp, #8
    9abc:	e50b0008 	str	r0, [fp, #-8]
    9ac0:	e50b100c 	str	r1, [fp, #-12]
    9ac4:	e51b3008 	ldr	r3, [fp, #-8]
    9ac8:	e3530001 	cmp	r3, #1
    9acc:	1a000014 	bne	9b24 <_Z41__static_initialization_and_destruction_0ii+0x74>
/home/schenkj/os2022/sp/sources/userspace/sp_task/main.cpp:520 (discriminator 1)
    9ad0:	e51b300c 	ldr	r3, [fp, #-12]
    9ad4:	e59f2054 	ldr	r2, [pc, #84]	; 9b30 <_Z41__static_initialization_and_destruction_0ii+0x80>
    9ad8:	e1530002 	cmp	r3, r2
    9adc:	1a000010 	bne	9b24 <_Z41__static_initialization_and_destruction_0ii+0x74>
/home/schenkj/os2022/sp/sources/userspace/sp_task/main.cpp:14
float* values = reinterpret_cast<float*>(malloc(16*sizeof(float)));
    9ae0:	e3a00040 	mov	r0, #64	; 0x40
    9ae4:	eb000134 	bl	9fbc <_Z6mallocj>
    9ae8:	e1a03000 	mov	r3, r0
    9aec:	e59f2040 	ldr	r2, [pc, #64]	; 9b34 <_Z41__static_initialization_and_destruction_0ii+0x84>
    9af0:	e5823000 	str	r3, [r2]
/home/schenkj/os2022/sp/sources/userspace/sp_task/main.cpp:35
Read_Utils reader;
    9af4:	e59f003c 	ldr	r0, [pc, #60]	; 9b38 <_Z41__static_initialization_and_destruction_0ii+0x88>
    9af8:	eb000410 	bl	ab40 <_ZN10Read_UtilsC1Ev>
/home/schenkj/os2022/sp/sources/userspace/sp_task/main.cpp:43
float* best_params = reinterpret_cast<float*>(malloc(5*sizeof(float)));
    9afc:	e3a00014 	mov	r0, #20
    9b00:	eb00012d 	bl	9fbc <_Z6mallocj>
    9b04:	e1a03000 	mov	r3, r0
    9b08:	e59f202c 	ldr	r2, [pc, #44]	; 9b3c <_Z41__static_initialization_and_destruction_0ii+0x8c>
    9b0c:	e5823000 	str	r3, [r2]
/home/schenkj/os2022/sp/sources/userspace/sp_task/main.cpp:45
float* old_best_params = reinterpret_cast<float*>(malloc(5*sizeof(float)));
    9b10:	e3a00014 	mov	r0, #20
    9b14:	eb000128 	bl	9fbc <_Z6mallocj>
    9b18:	e1a03000 	mov	r3, r0
    9b1c:	e59f201c 	ldr	r2, [pc, #28]	; 9b40 <_Z41__static_initialization_and_destruction_0ii+0x90>
    9b20:	e5823000 	str	r3, [r2]
/home/schenkj/os2022/sp/sources/userspace/sp_task/main.cpp:520
}	
    9b24:	e320f000 	nop	{0}
    9b28:	e24bd004 	sub	sp, fp, #4
    9b2c:	e8bd8800 	pop	{fp, pc}
    9b30:	0000ffff 	strdeq	pc, [r0], -pc	; <UNPREDICTABLE>
    9b34:	0000b474 	andeq	fp, r0, r4, ror r4
    9b38:	0000b88c 	andeq	fp, r0, ip, lsl #17
    9b3c:	0000b920 	andeq	fp, r0, r0, lsr #18
    9b40:	0000b924 	andeq	fp, r0, r4, lsr #18

00009b44 <_GLOBAL__sub_I_DELTA>:
_GLOBAL__sub_I_DELTA():
/home/schenkj/os2022/sp/sources/userspace/sp_task/main.cpp:520
    9b44:	e92d4800 	push	{fp, lr}
    9b48:	e28db004 	add	fp, sp, #4
    9b4c:	e59f1008 	ldr	r1, [pc, #8]	; 9b5c <_GLOBAL__sub_I_DELTA+0x18>
    9b50:	e3a00001 	mov	r0, #1
    9b54:	ebffffd5 	bl	9ab0 <_Z41__static_initialization_and_destruction_0ii>
    9b58:	e8bd8800 	pop	{fp, pc}
    9b5c:	0000ffff 	strdeq	pc, [r0], -pc	; <UNPREDICTABLE>

00009b60 <_Z6getpidv>:
_Z6getpidv():
/home/schenkj/os2022/sp/sources/stdlib/src/stdfile.cpp:5
#include <stdfile.h>
#include <stdstring.h>

uint32_t getpid()
{
    9b60:	e52db004 	push	{fp}		; (str fp, [sp, #-4]!)
    9b64:	e28db000 	add	fp, sp, #0
    9b68:	e24dd00c 	sub	sp, sp, #12
/home/schenkj/os2022/sp/sources/stdlib/src/stdfile.cpp:8
    uint32_t pid;

    asm volatile("swi 0");
    9b6c:	ef000000 	svc	0x00000000
/home/schenkj/os2022/sp/sources/stdlib/src/stdfile.cpp:9
    asm volatile("mov %0, r0" : "=r" (pid));
    9b70:	e1a03000 	mov	r3, r0
    9b74:	e50b3008 	str	r3, [fp, #-8]
/home/schenkj/os2022/sp/sources/stdlib/src/stdfile.cpp:11

    return pid;
    9b78:	e51b3008 	ldr	r3, [fp, #-8]
/home/schenkj/os2022/sp/sources/stdlib/src/stdfile.cpp:12
}
    9b7c:	e1a00003 	mov	r0, r3
    9b80:	e28bd000 	add	sp, fp, #0
    9b84:	e49db004 	pop	{fp}		; (ldr fp, [sp], #4)
    9b88:	e12fff1e 	bx	lr

00009b8c <_Z9terminatei>:
_Z9terminatei():
/home/schenkj/os2022/sp/sources/stdlib/src/stdfile.cpp:15

void terminate(int exitcode)
{
    9b8c:	e52db004 	push	{fp}		; (str fp, [sp, #-4]!)
    9b90:	e28db000 	add	fp, sp, #0
    9b94:	e24dd00c 	sub	sp, sp, #12
    9b98:	e50b0008 	str	r0, [fp, #-8]
/home/schenkj/os2022/sp/sources/stdlib/src/stdfile.cpp:16
    asm volatile("mov r0, %0" : : "r" (exitcode));
    9b9c:	e51b3008 	ldr	r3, [fp, #-8]
    9ba0:	e1a00003 	mov	r0, r3
/home/schenkj/os2022/sp/sources/stdlib/src/stdfile.cpp:17
    asm volatile("swi 1");
    9ba4:	ef000001 	svc	0x00000001
/home/schenkj/os2022/sp/sources/stdlib/src/stdfile.cpp:18
}
    9ba8:	e320f000 	nop	{0}
    9bac:	e28bd000 	add	sp, fp, #0
    9bb0:	e49db004 	pop	{fp}		; (ldr fp, [sp], #4)
    9bb4:	e12fff1e 	bx	lr

00009bb8 <_Z11sched_yieldv>:
_Z11sched_yieldv():
/home/schenkj/os2022/sp/sources/stdlib/src/stdfile.cpp:21

void sched_yield()
{
    9bb8:	e52db004 	push	{fp}		; (str fp, [sp, #-4]!)
    9bbc:	e28db000 	add	fp, sp, #0
/home/schenkj/os2022/sp/sources/stdlib/src/stdfile.cpp:22
    asm volatile("swi 2");
    9bc0:	ef000002 	svc	0x00000002
/home/schenkj/os2022/sp/sources/stdlib/src/stdfile.cpp:23
}
    9bc4:	e320f000 	nop	{0}
    9bc8:	e28bd000 	add	sp, fp, #0
    9bcc:	e49db004 	pop	{fp}		; (ldr fp, [sp], #4)
    9bd0:	e12fff1e 	bx	lr

00009bd4 <_Z4openPKc15NFile_Open_Mode>:
_Z4openPKc15NFile_Open_Mode():
/home/schenkj/os2022/sp/sources/stdlib/src/stdfile.cpp:26

uint32_t open(const char* filename, NFile_Open_Mode mode)
{
    9bd4:	e52db004 	push	{fp}		; (str fp, [sp, #-4]!)
    9bd8:	e28db000 	add	fp, sp, #0
    9bdc:	e24dd014 	sub	sp, sp, #20
    9be0:	e50b0010 	str	r0, [fp, #-16]
    9be4:	e50b1014 	str	r1, [fp, #-20]	; 0xffffffec
/home/schenkj/os2022/sp/sources/stdlib/src/stdfile.cpp:29
    uint32_t file;

    asm volatile("mov r0, %0" : : "r" (filename));
    9be8:	e51b3010 	ldr	r3, [fp, #-16]
    9bec:	e1a00003 	mov	r0, r3
/home/schenkj/os2022/sp/sources/stdlib/src/stdfile.cpp:30
    asm volatile("mov r1, %0" : : "r" (mode));
    9bf0:	e51b3014 	ldr	r3, [fp, #-20]	; 0xffffffec
    9bf4:	e1a01003 	mov	r1, r3
/home/schenkj/os2022/sp/sources/stdlib/src/stdfile.cpp:31
    asm volatile("swi 64");
    9bf8:	ef000040 	svc	0x00000040
/home/schenkj/os2022/sp/sources/stdlib/src/stdfile.cpp:32
    asm volatile("mov %0, r0" : "=r" (file));
    9bfc:	e1a03000 	mov	r3, r0
    9c00:	e50b3008 	str	r3, [fp, #-8]
/home/schenkj/os2022/sp/sources/stdlib/src/stdfile.cpp:34

    return file;
    9c04:	e51b3008 	ldr	r3, [fp, #-8]
/home/schenkj/os2022/sp/sources/stdlib/src/stdfile.cpp:35
}
    9c08:	e1a00003 	mov	r0, r3
    9c0c:	e28bd000 	add	sp, fp, #0
    9c10:	e49db004 	pop	{fp}		; (ldr fp, [sp], #4)
    9c14:	e12fff1e 	bx	lr

00009c18 <_Z4readjPcj>:
_Z4readjPcj():
/home/schenkj/os2022/sp/sources/stdlib/src/stdfile.cpp:38

uint32_t read(uint32_t file, char* const buffer, uint32_t size)
{
    9c18:	e52db004 	push	{fp}		; (str fp, [sp, #-4]!)
    9c1c:	e28db000 	add	fp, sp, #0
    9c20:	e24dd01c 	sub	sp, sp, #28
    9c24:	e50b0010 	str	r0, [fp, #-16]
    9c28:	e50b1014 	str	r1, [fp, #-20]	; 0xffffffec
    9c2c:	e50b2018 	str	r2, [fp, #-24]	; 0xffffffe8
/home/schenkj/os2022/sp/sources/stdlib/src/stdfile.cpp:41
    uint32_t rdnum;

    asm volatile("mov r0, %0" : : "r" (file));
    9c30:	e51b3010 	ldr	r3, [fp, #-16]
    9c34:	e1a00003 	mov	r0, r3
/home/schenkj/os2022/sp/sources/stdlib/src/stdfile.cpp:42
    asm volatile("mov r1, %0" : : "r" (buffer));
    9c38:	e51b3014 	ldr	r3, [fp, #-20]	; 0xffffffec
    9c3c:	e1a01003 	mov	r1, r3
/home/schenkj/os2022/sp/sources/stdlib/src/stdfile.cpp:43
    asm volatile("mov r2, %0" : : "r" (size));
    9c40:	e51b3018 	ldr	r3, [fp, #-24]	; 0xffffffe8
    9c44:	e1a02003 	mov	r2, r3
/home/schenkj/os2022/sp/sources/stdlib/src/stdfile.cpp:44
    asm volatile("swi 65");
    9c48:	ef000041 	svc	0x00000041
/home/schenkj/os2022/sp/sources/stdlib/src/stdfile.cpp:45
    asm volatile("mov %0, r0" : "=r" (rdnum));
    9c4c:	e1a03000 	mov	r3, r0
    9c50:	e50b3008 	str	r3, [fp, #-8]
/home/schenkj/os2022/sp/sources/stdlib/src/stdfile.cpp:47

    return rdnum;
    9c54:	e51b3008 	ldr	r3, [fp, #-8]
/home/schenkj/os2022/sp/sources/stdlib/src/stdfile.cpp:48
}
    9c58:	e1a00003 	mov	r0, r3
    9c5c:	e28bd000 	add	sp, fp, #0
    9c60:	e49db004 	pop	{fp}		; (ldr fp, [sp], #4)
    9c64:	e12fff1e 	bx	lr

00009c68 <_Z5writejPKcj>:
_Z5writejPKcj():
/home/schenkj/os2022/sp/sources/stdlib/src/stdfile.cpp:51

uint32_t write(uint32_t file, const char* buffer, uint32_t size)
{
    9c68:	e52db004 	push	{fp}		; (str fp, [sp, #-4]!)
    9c6c:	e28db000 	add	fp, sp, #0
    9c70:	e24dd01c 	sub	sp, sp, #28
    9c74:	e50b0010 	str	r0, [fp, #-16]
    9c78:	e50b1014 	str	r1, [fp, #-20]	; 0xffffffec
    9c7c:	e50b2018 	str	r2, [fp, #-24]	; 0xffffffe8
/home/schenkj/os2022/sp/sources/stdlib/src/stdfile.cpp:54
    uint32_t wrnum;

    asm volatile("mov r0, %0" : : "r" (file));
    9c80:	e51b3010 	ldr	r3, [fp, #-16]
    9c84:	e1a00003 	mov	r0, r3
/home/schenkj/os2022/sp/sources/stdlib/src/stdfile.cpp:55
    asm volatile("mov r1, %0" : : "r" (buffer));
    9c88:	e51b3014 	ldr	r3, [fp, #-20]	; 0xffffffec
    9c8c:	e1a01003 	mov	r1, r3
/home/schenkj/os2022/sp/sources/stdlib/src/stdfile.cpp:56
    asm volatile("mov r2, %0" : : "r" (size));
    9c90:	e51b3018 	ldr	r3, [fp, #-24]	; 0xffffffe8
    9c94:	e1a02003 	mov	r2, r3
/home/schenkj/os2022/sp/sources/stdlib/src/stdfile.cpp:57
    asm volatile("swi 66");
    9c98:	ef000042 	svc	0x00000042
/home/schenkj/os2022/sp/sources/stdlib/src/stdfile.cpp:58
    asm volatile("mov %0, r0" : "=r" (wrnum));
    9c9c:	e1a03000 	mov	r3, r0
    9ca0:	e50b3008 	str	r3, [fp, #-8]
/home/schenkj/os2022/sp/sources/stdlib/src/stdfile.cpp:60

    return wrnum;
    9ca4:	e51b3008 	ldr	r3, [fp, #-8]
/home/schenkj/os2022/sp/sources/stdlib/src/stdfile.cpp:61
}
    9ca8:	e1a00003 	mov	r0, r3
    9cac:	e28bd000 	add	sp, fp, #0
    9cb0:	e49db004 	pop	{fp}		; (ldr fp, [sp], #4)
    9cb4:	e12fff1e 	bx	lr

00009cb8 <_Z5closej>:
_Z5closej():
/home/schenkj/os2022/sp/sources/stdlib/src/stdfile.cpp:64

void close(uint32_t file)
{
    9cb8:	e52db004 	push	{fp}		; (str fp, [sp, #-4]!)
    9cbc:	e28db000 	add	fp, sp, #0
    9cc0:	e24dd00c 	sub	sp, sp, #12
    9cc4:	e50b0008 	str	r0, [fp, #-8]
/home/schenkj/os2022/sp/sources/stdlib/src/stdfile.cpp:65
    asm volatile("mov r0, %0" : : "r" (file));
    9cc8:	e51b3008 	ldr	r3, [fp, #-8]
    9ccc:	e1a00003 	mov	r0, r3
/home/schenkj/os2022/sp/sources/stdlib/src/stdfile.cpp:66
    asm volatile("swi 67");
    9cd0:	ef000043 	svc	0x00000043
/home/schenkj/os2022/sp/sources/stdlib/src/stdfile.cpp:67
}
    9cd4:	e320f000 	nop	{0}
    9cd8:	e28bd000 	add	sp, fp, #0
    9cdc:	e49db004 	pop	{fp}		; (ldr fp, [sp], #4)
    9ce0:	e12fff1e 	bx	lr

00009ce4 <_Z5ioctlj16NIOCtl_OperationPv>:
_Z5ioctlj16NIOCtl_OperationPv():
/home/schenkj/os2022/sp/sources/stdlib/src/stdfile.cpp:70

uint32_t ioctl(uint32_t file, NIOCtl_Operation operation, void* param)
{
    9ce4:	e52db004 	push	{fp}		; (str fp, [sp, #-4]!)
    9ce8:	e28db000 	add	fp, sp, #0
    9cec:	e24dd01c 	sub	sp, sp, #28
    9cf0:	e50b0010 	str	r0, [fp, #-16]
    9cf4:	e50b1014 	str	r1, [fp, #-20]	; 0xffffffec
    9cf8:	e50b2018 	str	r2, [fp, #-24]	; 0xffffffe8
/home/schenkj/os2022/sp/sources/stdlib/src/stdfile.cpp:73
    uint32_t retcode;

    asm volatile("mov r0, %0" : : "r" (file));
    9cfc:	e51b3010 	ldr	r3, [fp, #-16]
    9d00:	e1a00003 	mov	r0, r3
/home/schenkj/os2022/sp/sources/stdlib/src/stdfile.cpp:74
    asm volatile("mov r1, %0" : : "r" (operation));
    9d04:	e51b3014 	ldr	r3, [fp, #-20]	; 0xffffffec
    9d08:	e1a01003 	mov	r1, r3
/home/schenkj/os2022/sp/sources/stdlib/src/stdfile.cpp:75
    asm volatile("mov r2, %0" : : "r" (param));
    9d0c:	e51b3018 	ldr	r3, [fp, #-24]	; 0xffffffe8
    9d10:	e1a02003 	mov	r2, r3
/home/schenkj/os2022/sp/sources/stdlib/src/stdfile.cpp:76
    asm volatile("swi 68");
    9d14:	ef000044 	svc	0x00000044
/home/schenkj/os2022/sp/sources/stdlib/src/stdfile.cpp:77
    asm volatile("mov %0, r0" : "=r" (retcode));
    9d18:	e1a03000 	mov	r3, r0
    9d1c:	e50b3008 	str	r3, [fp, #-8]
/home/schenkj/os2022/sp/sources/stdlib/src/stdfile.cpp:79

    return retcode;
    9d20:	e51b3008 	ldr	r3, [fp, #-8]
/home/schenkj/os2022/sp/sources/stdlib/src/stdfile.cpp:80
}
    9d24:	e1a00003 	mov	r0, r3
    9d28:	e28bd000 	add	sp, fp, #0
    9d2c:	e49db004 	pop	{fp}		; (ldr fp, [sp], #4)
    9d30:	e12fff1e 	bx	lr

00009d34 <_Z6notifyjj>:
_Z6notifyjj():
/home/schenkj/os2022/sp/sources/stdlib/src/stdfile.cpp:83

uint32_t notify(uint32_t file, uint32_t count)
{
    9d34:	e52db004 	push	{fp}		; (str fp, [sp, #-4]!)
    9d38:	e28db000 	add	fp, sp, #0
    9d3c:	e24dd014 	sub	sp, sp, #20
    9d40:	e50b0010 	str	r0, [fp, #-16]
    9d44:	e50b1014 	str	r1, [fp, #-20]	; 0xffffffec
/home/schenkj/os2022/sp/sources/stdlib/src/stdfile.cpp:86
    uint32_t retcnt;

    asm volatile("mov r0, %0" : : "r" (file));
    9d48:	e51b3010 	ldr	r3, [fp, #-16]
    9d4c:	e1a00003 	mov	r0, r3
/home/schenkj/os2022/sp/sources/stdlib/src/stdfile.cpp:87
    asm volatile("mov r1, %0" : : "r" (count));
    9d50:	e51b3014 	ldr	r3, [fp, #-20]	; 0xffffffec
    9d54:	e1a01003 	mov	r1, r3
/home/schenkj/os2022/sp/sources/stdlib/src/stdfile.cpp:88
    asm volatile("swi 69");
    9d58:	ef000045 	svc	0x00000045
/home/schenkj/os2022/sp/sources/stdlib/src/stdfile.cpp:89
    asm volatile("mov %0, r0" : "=r" (retcnt));
    9d5c:	e1a03000 	mov	r3, r0
    9d60:	e50b3008 	str	r3, [fp, #-8]
/home/schenkj/os2022/sp/sources/stdlib/src/stdfile.cpp:91

    return retcnt;
    9d64:	e51b3008 	ldr	r3, [fp, #-8]
/home/schenkj/os2022/sp/sources/stdlib/src/stdfile.cpp:92
}
    9d68:	e1a00003 	mov	r0, r3
    9d6c:	e28bd000 	add	sp, fp, #0
    9d70:	e49db004 	pop	{fp}		; (ldr fp, [sp], #4)
    9d74:	e12fff1e 	bx	lr

00009d78 <_Z4waitjjj>:
_Z4waitjjj():
/home/schenkj/os2022/sp/sources/stdlib/src/stdfile.cpp:95

NSWI_Result_Code wait(uint32_t file, uint32_t count, uint32_t notified_deadline)
{
    9d78:	e52db004 	push	{fp}		; (str fp, [sp, #-4]!)
    9d7c:	e28db000 	add	fp, sp, #0
    9d80:	e24dd01c 	sub	sp, sp, #28
    9d84:	e50b0010 	str	r0, [fp, #-16]
    9d88:	e50b1014 	str	r1, [fp, #-20]	; 0xffffffec
    9d8c:	e50b2018 	str	r2, [fp, #-24]	; 0xffffffe8
/home/schenkj/os2022/sp/sources/stdlib/src/stdfile.cpp:98
    NSWI_Result_Code retcode;

    asm volatile("mov r0, %0" : : "r" (file));
    9d90:	e51b3010 	ldr	r3, [fp, #-16]
    9d94:	e1a00003 	mov	r0, r3
/home/schenkj/os2022/sp/sources/stdlib/src/stdfile.cpp:99
    asm volatile("mov r1, %0" : : "r" (count));
    9d98:	e51b3014 	ldr	r3, [fp, #-20]	; 0xffffffec
    9d9c:	e1a01003 	mov	r1, r3
/home/schenkj/os2022/sp/sources/stdlib/src/stdfile.cpp:100
    asm volatile("mov r2, %0" : : "r" (notified_deadline));
    9da0:	e51b3018 	ldr	r3, [fp, #-24]	; 0xffffffe8
    9da4:	e1a02003 	mov	r2, r3
/home/schenkj/os2022/sp/sources/stdlib/src/stdfile.cpp:101
    asm volatile("swi 70");
    9da8:	ef000046 	svc	0x00000046
/home/schenkj/os2022/sp/sources/stdlib/src/stdfile.cpp:102
    asm volatile("mov %0, r0" : "=r" (retcode));
    9dac:	e1a03000 	mov	r3, r0
    9db0:	e50b3008 	str	r3, [fp, #-8]
/home/schenkj/os2022/sp/sources/stdlib/src/stdfile.cpp:104

    return retcode;
    9db4:	e51b3008 	ldr	r3, [fp, #-8]
/home/schenkj/os2022/sp/sources/stdlib/src/stdfile.cpp:105
}
    9db8:	e1a00003 	mov	r0, r3
    9dbc:	e28bd000 	add	sp, fp, #0
    9dc0:	e49db004 	pop	{fp}		; (ldr fp, [sp], #4)
    9dc4:	e12fff1e 	bx	lr

00009dc8 <_Z5sleepjj>:
_Z5sleepjj():
/home/schenkj/os2022/sp/sources/stdlib/src/stdfile.cpp:108

bool sleep(uint32_t ticks, uint32_t notified_deadline)
{
    9dc8:	e52db004 	push	{fp}		; (str fp, [sp, #-4]!)
    9dcc:	e28db000 	add	fp, sp, #0
    9dd0:	e24dd014 	sub	sp, sp, #20
    9dd4:	e50b0010 	str	r0, [fp, #-16]
    9dd8:	e50b1014 	str	r1, [fp, #-20]	; 0xffffffec
/home/schenkj/os2022/sp/sources/stdlib/src/stdfile.cpp:111
    uint32_t retcode;

    asm volatile("mov r0, %0" : : "r" (ticks));
    9ddc:	e51b3010 	ldr	r3, [fp, #-16]
    9de0:	e1a00003 	mov	r0, r3
/home/schenkj/os2022/sp/sources/stdlib/src/stdfile.cpp:112
    asm volatile("mov r1, %0" : : "r" (notified_deadline));
    9de4:	e51b3014 	ldr	r3, [fp, #-20]	; 0xffffffec
    9de8:	e1a01003 	mov	r1, r3
/home/schenkj/os2022/sp/sources/stdlib/src/stdfile.cpp:113
    asm volatile("swi 3");
    9dec:	ef000003 	svc	0x00000003
/home/schenkj/os2022/sp/sources/stdlib/src/stdfile.cpp:114
    asm volatile("mov %0, r0" : "=r" (retcode));
    9df0:	e1a03000 	mov	r3, r0
    9df4:	e50b3008 	str	r3, [fp, #-8]
/home/schenkj/os2022/sp/sources/stdlib/src/stdfile.cpp:116

    return retcode;
    9df8:	e51b3008 	ldr	r3, [fp, #-8]
    9dfc:	e3530000 	cmp	r3, #0
    9e00:	13a03001 	movne	r3, #1
    9e04:	03a03000 	moveq	r3, #0
    9e08:	e6ef3073 	uxtb	r3, r3
/home/schenkj/os2022/sp/sources/stdlib/src/stdfile.cpp:117
}
    9e0c:	e1a00003 	mov	r0, r3
    9e10:	e28bd000 	add	sp, fp, #0
    9e14:	e49db004 	pop	{fp}		; (ldr fp, [sp], #4)
    9e18:	e12fff1e 	bx	lr

00009e1c <_Z24get_active_process_countv>:
_Z24get_active_process_countv():
/home/schenkj/os2022/sp/sources/stdlib/src/stdfile.cpp:120

uint32_t get_active_process_count()
{
    9e1c:	e52db004 	push	{fp}		; (str fp, [sp, #-4]!)
    9e20:	e28db000 	add	fp, sp, #0
    9e24:	e24dd00c 	sub	sp, sp, #12
/home/schenkj/os2022/sp/sources/stdlib/src/stdfile.cpp:121
    const NGet_Sched_Info_Type req = NGet_Sched_Info_Type::Active_Process_Count;
    9e28:	e3a03000 	mov	r3, #0
    9e2c:	e50b3008 	str	r3, [fp, #-8]
/home/schenkj/os2022/sp/sources/stdlib/src/stdfile.cpp:124
    uint32_t retval;

    asm volatile("mov r0, %0" : : "r" (req));
    9e30:	e3a03000 	mov	r3, #0
    9e34:	e1a00003 	mov	r0, r3
/home/schenkj/os2022/sp/sources/stdlib/src/stdfile.cpp:125
    asm volatile("mov r1, %0" : : "r" (&retval));
    9e38:	e24b300c 	sub	r3, fp, #12
    9e3c:	e1a01003 	mov	r1, r3
/home/schenkj/os2022/sp/sources/stdlib/src/stdfile.cpp:126
    asm volatile("swi 4");
    9e40:	ef000004 	svc	0x00000004
/home/schenkj/os2022/sp/sources/stdlib/src/stdfile.cpp:128

    return retval;
    9e44:	e51b300c 	ldr	r3, [fp, #-12]
/home/schenkj/os2022/sp/sources/stdlib/src/stdfile.cpp:129
}
    9e48:	e1a00003 	mov	r0, r3
    9e4c:	e28bd000 	add	sp, fp, #0
    9e50:	e49db004 	pop	{fp}		; (ldr fp, [sp], #4)
    9e54:	e12fff1e 	bx	lr

00009e58 <_Z14get_tick_countv>:
_Z14get_tick_countv():
/home/schenkj/os2022/sp/sources/stdlib/src/stdfile.cpp:132

uint32_t get_tick_count()
{
    9e58:	e52db004 	push	{fp}		; (str fp, [sp, #-4]!)
    9e5c:	e28db000 	add	fp, sp, #0
    9e60:	e24dd00c 	sub	sp, sp, #12
/home/schenkj/os2022/sp/sources/stdlib/src/stdfile.cpp:133
    const NGet_Sched_Info_Type req = NGet_Sched_Info_Type::Tick_Count;
    9e64:	e3a03001 	mov	r3, #1
    9e68:	e50b3008 	str	r3, [fp, #-8]
/home/schenkj/os2022/sp/sources/stdlib/src/stdfile.cpp:136
    uint32_t retval;

    asm volatile("mov r0, %0" : : "r" (req));
    9e6c:	e3a03001 	mov	r3, #1
    9e70:	e1a00003 	mov	r0, r3
/home/schenkj/os2022/sp/sources/stdlib/src/stdfile.cpp:137
    asm volatile("mov r1, %0" : : "r" (&retval));
    9e74:	e24b300c 	sub	r3, fp, #12
    9e78:	e1a01003 	mov	r1, r3
/home/schenkj/os2022/sp/sources/stdlib/src/stdfile.cpp:138
    asm volatile("swi 4");
    9e7c:	ef000004 	svc	0x00000004
/home/schenkj/os2022/sp/sources/stdlib/src/stdfile.cpp:140

    return retval;
    9e80:	e51b300c 	ldr	r3, [fp, #-12]
/home/schenkj/os2022/sp/sources/stdlib/src/stdfile.cpp:141
}
    9e84:	e1a00003 	mov	r0, r3
    9e88:	e28bd000 	add	sp, fp, #0
    9e8c:	e49db004 	pop	{fp}		; (ldr fp, [sp], #4)
    9e90:	e12fff1e 	bx	lr

00009e94 <_Z17set_task_deadlinej>:
_Z17set_task_deadlinej():
/home/schenkj/os2022/sp/sources/stdlib/src/stdfile.cpp:144

void set_task_deadline(uint32_t tick_count_required)
{
    9e94:	e52db004 	push	{fp}		; (str fp, [sp, #-4]!)
    9e98:	e28db000 	add	fp, sp, #0
    9e9c:	e24dd014 	sub	sp, sp, #20
    9ea0:	e50b0010 	str	r0, [fp, #-16]
/home/schenkj/os2022/sp/sources/stdlib/src/stdfile.cpp:145
    const NDeadline_Subservice req = NDeadline_Subservice::Set_Relative;
    9ea4:	e3a03000 	mov	r3, #0
    9ea8:	e50b3008 	str	r3, [fp, #-8]
/home/schenkj/os2022/sp/sources/stdlib/src/stdfile.cpp:147

    asm volatile("mov r0, %0" : : "r" (req));
    9eac:	e3a03000 	mov	r3, #0
    9eb0:	e1a00003 	mov	r0, r3
/home/schenkj/os2022/sp/sources/stdlib/src/stdfile.cpp:148
    asm volatile("mov r1, %0" : : "r" (&tick_count_required));
    9eb4:	e24b3010 	sub	r3, fp, #16
    9eb8:	e1a01003 	mov	r1, r3
/home/schenkj/os2022/sp/sources/stdlib/src/stdfile.cpp:149
    asm volatile("swi 5");
    9ebc:	ef000005 	svc	0x00000005
/home/schenkj/os2022/sp/sources/stdlib/src/stdfile.cpp:150
}
    9ec0:	e320f000 	nop	{0}
    9ec4:	e28bd000 	add	sp, fp, #0
    9ec8:	e49db004 	pop	{fp}		; (ldr fp, [sp], #4)
    9ecc:	e12fff1e 	bx	lr

00009ed0 <_Z26get_task_ticks_to_deadlinev>:
_Z26get_task_ticks_to_deadlinev():
/home/schenkj/os2022/sp/sources/stdlib/src/stdfile.cpp:153

uint32_t get_task_ticks_to_deadline()
{
    9ed0:	e52db004 	push	{fp}		; (str fp, [sp, #-4]!)
    9ed4:	e28db000 	add	fp, sp, #0
    9ed8:	e24dd00c 	sub	sp, sp, #12
/home/schenkj/os2022/sp/sources/stdlib/src/stdfile.cpp:154
    const NDeadline_Subservice req = NDeadline_Subservice::Get_Remaining;
    9edc:	e3a03001 	mov	r3, #1
    9ee0:	e50b3008 	str	r3, [fp, #-8]
/home/schenkj/os2022/sp/sources/stdlib/src/stdfile.cpp:157
    uint32_t ticks;

    asm volatile("mov r0, %0" : : "r" (req));
    9ee4:	e3a03001 	mov	r3, #1
    9ee8:	e1a00003 	mov	r0, r3
/home/schenkj/os2022/sp/sources/stdlib/src/stdfile.cpp:158
    asm volatile("mov r1, %0" : : "r" (&ticks));
    9eec:	e24b300c 	sub	r3, fp, #12
    9ef0:	e1a01003 	mov	r1, r3
/home/schenkj/os2022/sp/sources/stdlib/src/stdfile.cpp:159
    asm volatile("swi 5");
    9ef4:	ef000005 	svc	0x00000005
/home/schenkj/os2022/sp/sources/stdlib/src/stdfile.cpp:161

    return ticks;
    9ef8:	e51b300c 	ldr	r3, [fp, #-12]
/home/schenkj/os2022/sp/sources/stdlib/src/stdfile.cpp:162
}
    9efc:	e1a00003 	mov	r0, r3
    9f00:	e28bd000 	add	sp, fp, #0
    9f04:	e49db004 	pop	{fp}		; (ldr fp, [sp], #4)
    9f08:	e12fff1e 	bx	lr

00009f0c <_Z4pipePKcj>:
_Z4pipePKcj():
/home/schenkj/os2022/sp/sources/stdlib/src/stdfile.cpp:167

const char Pipe_File_Prefix[] = "SYS:pipe/";

uint32_t pipe(const char* name, uint32_t buf_size)
{
    9f0c:	e92d4800 	push	{fp, lr}
    9f10:	e28db004 	add	fp, sp, #4
    9f14:	e24dd050 	sub	sp, sp, #80	; 0x50
    9f18:	e50b0050 	str	r0, [fp, #-80]	; 0xffffffb0
    9f1c:	e50b1054 	str	r1, [fp, #-84]	; 0xffffffac
/home/schenkj/os2022/sp/sources/stdlib/src/stdfile.cpp:169
    char fname[64];
    strncpy(fname, Pipe_File_Prefix, sizeof(Pipe_File_Prefix));
    9f20:	e24b3048 	sub	r3, fp, #72	; 0x48
    9f24:	e3a0200a 	mov	r2, #10
    9f28:	e59f1088 	ldr	r1, [pc, #136]	; 9fb8 <_Z4pipePKcj+0xac>
    9f2c:	e1a00003 	mov	r0, r3
    9f30:	eb000223 	bl	a7c4 <_Z7strncpyPcPKci>
/home/schenkj/os2022/sp/sources/stdlib/src/stdfile.cpp:170
    strncpy(fname + sizeof(Pipe_File_Prefix), name, sizeof(fname) - sizeof(Pipe_File_Prefix) - 1);
    9f34:	e24b3048 	sub	r3, fp, #72	; 0x48
    9f38:	e283300a 	add	r3, r3, #10
    9f3c:	e3a02035 	mov	r2, #53	; 0x35
    9f40:	e51b1050 	ldr	r1, [fp, #-80]	; 0xffffffb0
    9f44:	e1a00003 	mov	r0, r3
    9f48:	eb00021d 	bl	a7c4 <_Z7strncpyPcPKci>
/home/schenkj/os2022/sp/sources/stdlib/src/stdfile.cpp:172

    int ncur = sizeof(Pipe_File_Prefix) + strlen(name);
    9f4c:	e51b0050 	ldr	r0, [fp, #-80]	; 0xffffffb0
    9f50:	eb0002ab 	bl	aa04 <_Z6strlenPKc>
    9f54:	e1a03000 	mov	r3, r0
    9f58:	e283300a 	add	r3, r3, #10
    9f5c:	e50b3008 	str	r3, [fp, #-8]
/home/schenkj/os2022/sp/sources/stdlib/src/stdfile.cpp:174

    fname[ncur++] = '#';
    9f60:	e51b3008 	ldr	r3, [fp, #-8]
    9f64:	e2832001 	add	r2, r3, #1
    9f68:	e50b2008 	str	r2, [fp, #-8]
    9f6c:	e24b2004 	sub	r2, fp, #4
    9f70:	e0823003 	add	r3, r2, r3
    9f74:	e3a02023 	mov	r2, #35	; 0x23
    9f78:	e5432044 	strb	r2, [r3, #-68]	; 0xffffffbc
/home/schenkj/os2022/sp/sources/stdlib/src/stdfile.cpp:176

    itoa(buf_size, &fname[ncur], 10);
    9f7c:	e24b2048 	sub	r2, fp, #72	; 0x48
    9f80:	e51b3008 	ldr	r3, [fp, #-8]
    9f84:	e0823003 	add	r3, r2, r3
    9f88:	e3a0200a 	mov	r2, #10
    9f8c:	e1a01003 	mov	r1, r3
    9f90:	e51b0054 	ldr	r0, [fp, #-84]	; 0xffffffac
    9f94:	eb000019 	bl	a000 <_Z4itoajPcj>
/home/schenkj/os2022/sp/sources/stdlib/src/stdfile.cpp:178

    return open(fname, NFile_Open_Mode::Read_Write);
    9f98:	e24b3048 	sub	r3, fp, #72	; 0x48
    9f9c:	e3a01002 	mov	r1, #2
    9fa0:	e1a00003 	mov	r0, r3
    9fa4:	ebffff0a 	bl	9bd4 <_Z4openPKc15NFile_Open_Mode>
    9fa8:	e1a03000 	mov	r3, r0
/home/schenkj/os2022/sp/sources/stdlib/src/stdfile.cpp:179
}
    9fac:	e1a00003 	mov	r0, r3
    9fb0:	e24bd004 	sub	sp, fp, #4
    9fb4:	e8bd8800 	pop	{fp, pc}
    9fb8:	0000b414 	andeq	fp, r0, r4, lsl r4

00009fbc <_Z6mallocj>:
_Z6mallocj():
/home/schenkj/os2022/sp/sources/stdlib/src/stdmem.cpp:7
/**
 * In this function we could have placed anorther second layer of memory assignment resulting in 
 * less often calls of software interrupt and memory allocation.
 */
void* malloc(uint32_t size)
{
    9fbc:	e52db004 	push	{fp}		; (str fp, [sp, #-4]!)
    9fc0:	e28db000 	add	fp, sp, #0
    9fc4:	e24dd014 	sub	sp, sp, #20
    9fc8:	e50b0010 	str	r0, [fp, #-16]
/home/schenkj/os2022/sp/sources/stdlib/src/stdmem.cpp:9
    uint32_t mem_add;
    asm volatile("mov r0, %0" : : "r" (size));
    9fcc:	e51b3010 	ldr	r3, [fp, #-16]
    9fd0:	e1a00003 	mov	r0, r3
/home/schenkj/os2022/sp/sources/stdlib/src/stdmem.cpp:10
    asm volatile("swi 128");
    9fd4:	ef000080 	svc	0x00000080
/home/schenkj/os2022/sp/sources/stdlib/src/stdmem.cpp:11
    asm volatile("mov %0, r0" : "=r" (mem_add));
    9fd8:	e1a03000 	mov	r3, r0
    9fdc:	e50b3008 	str	r3, [fp, #-8]
/home/schenkj/os2022/sp/sources/stdlib/src/stdmem.cpp:12
	void* ret = reinterpret_cast<void*>(mem_add);
    9fe0:	e51b3008 	ldr	r3, [fp, #-8]
    9fe4:	e50b300c 	str	r3, [fp, #-12]
/home/schenkj/os2022/sp/sources/stdlib/src/stdmem.cpp:13
    return ret;
    9fe8:	e51b300c 	ldr	r3, [fp, #-12]
/home/schenkj/os2022/sp/sources/stdlib/src/stdmem.cpp:14
}
    9fec:	e1a00003 	mov	r0, r3
    9ff0:	e28bd000 	add	sp, fp, #0
    9ff4:	e49db004 	pop	{fp}		; (ldr fp, [sp], #4)
    9ff8:	e12fff1e 	bx	lr
    9ffc:	00000000 	andeq	r0, r0, r0

0000a000 <_Z4itoajPcj>:
_Z4itoajPcj():
/home/schenkj/os2022/sp/sources/stdlib/src/stdstring.cpp:11
{
    const char CharConvArr[] = "0123456789ABCDEF";
}

void itoa(unsigned int input, char* output, unsigned int base)
{
    a000:	e92d4800 	push	{fp, lr}
    a004:	e28db004 	add	fp, sp, #4
    a008:	e24dd020 	sub	sp, sp, #32
    a00c:	e50b0018 	str	r0, [fp, #-24]	; 0xffffffe8
    a010:	e50b101c 	str	r1, [fp, #-28]	; 0xffffffe4
    a014:	e50b2020 	str	r2, [fp, #-32]	; 0xffffffe0
/home/schenkj/os2022/sp/sources/stdlib/src/stdstring.cpp:12
	int i = 0;
    a018:	e3a03000 	mov	r3, #0
    a01c:	e50b3008 	str	r3, [fp, #-8]
/home/schenkj/os2022/sp/sources/stdlib/src/stdstring.cpp:14

	while (input > 0)
    a020:	e51b3018 	ldr	r3, [fp, #-24]	; 0xffffffe8
    a024:	e3530000 	cmp	r3, #0
    a028:	0a000014 	beq	a080 <_Z4itoajPcj+0x80>
/home/schenkj/os2022/sp/sources/stdlib/src/stdstring.cpp:16
	{
		output[i] = CharConvArr[input % base];
    a02c:	e51b3018 	ldr	r3, [fp, #-24]	; 0xffffffe8
    a030:	e51b1020 	ldr	r1, [fp, #-32]	; 0xffffffe0
    a034:	e1a00003 	mov	r0, r3
    a038:	eb000451 	bl	b184 <__aeabi_uidivmod>
    a03c:	e1a03001 	mov	r3, r1
    a040:	e1a01003 	mov	r1, r3
    a044:	e51b3008 	ldr	r3, [fp, #-8]
    a048:	e51b201c 	ldr	r2, [fp, #-28]	; 0xffffffe4
    a04c:	e0823003 	add	r3, r2, r3
    a050:	e59f2118 	ldr	r2, [pc, #280]	; a170 <_Z4itoajPcj+0x170>
    a054:	e7d22001 	ldrb	r2, [r2, r1]
    a058:	e5c32000 	strb	r2, [r3]
/home/schenkj/os2022/sp/sources/stdlib/src/stdstring.cpp:17
		input /= base;
    a05c:	e51b1020 	ldr	r1, [fp, #-32]	; 0xffffffe0
    a060:	e51b0018 	ldr	r0, [fp, #-24]	; 0xffffffe8
    a064:	eb0003cb 	bl	af98 <__udivsi3>
    a068:	e1a03000 	mov	r3, r0
    a06c:	e50b3018 	str	r3, [fp, #-24]	; 0xffffffe8
/home/schenkj/os2022/sp/sources/stdlib/src/stdstring.cpp:18
		i++;
    a070:	e51b3008 	ldr	r3, [fp, #-8]
    a074:	e2833001 	add	r3, r3, #1
    a078:	e50b3008 	str	r3, [fp, #-8]
/home/schenkj/os2022/sp/sources/stdlib/src/stdstring.cpp:14
	while (input > 0)
    a07c:	eaffffe7 	b	a020 <_Z4itoajPcj+0x20>
/home/schenkj/os2022/sp/sources/stdlib/src/stdstring.cpp:21
	}

    if (i == 0)
    a080:	e51b3008 	ldr	r3, [fp, #-8]
    a084:	e3530000 	cmp	r3, #0
    a088:	1a000007 	bne	a0ac <_Z4itoajPcj+0xac>
/home/schenkj/os2022/sp/sources/stdlib/src/stdstring.cpp:23
    {
        output[i] = CharConvArr[0];
    a08c:	e51b3008 	ldr	r3, [fp, #-8]
    a090:	e51b201c 	ldr	r2, [fp, #-28]	; 0xffffffe4
    a094:	e0823003 	add	r3, r2, r3
    a098:	e3a02030 	mov	r2, #48	; 0x30
    a09c:	e5c32000 	strb	r2, [r3]
/home/schenkj/os2022/sp/sources/stdlib/src/stdstring.cpp:24
        i++;
    a0a0:	e51b3008 	ldr	r3, [fp, #-8]
    a0a4:	e2833001 	add	r3, r3, #1
    a0a8:	e50b3008 	str	r3, [fp, #-8]
/home/schenkj/os2022/sp/sources/stdlib/src/stdstring.cpp:27
    }

	output[i] = '\0';
    a0ac:	e51b3008 	ldr	r3, [fp, #-8]
    a0b0:	e51b201c 	ldr	r2, [fp, #-28]	; 0xffffffe4
    a0b4:	e0823003 	add	r3, r2, r3
    a0b8:	e3a02000 	mov	r2, #0
    a0bc:	e5c32000 	strb	r2, [r3]
/home/schenkj/os2022/sp/sources/stdlib/src/stdstring.cpp:28
	i--;
    a0c0:	e51b3008 	ldr	r3, [fp, #-8]
    a0c4:	e2433001 	sub	r3, r3, #1
    a0c8:	e50b3008 	str	r3, [fp, #-8]
/home/schenkj/os2022/sp/sources/stdlib/src/stdstring.cpp:30

	for (int j = 0; j <= i/2; j++)
    a0cc:	e3a03000 	mov	r3, #0
    a0d0:	e50b300c 	str	r3, [fp, #-12]
/home/schenkj/os2022/sp/sources/stdlib/src/stdstring.cpp:30 (discriminator 3)
    a0d4:	e51b3008 	ldr	r3, [fp, #-8]
    a0d8:	e1a02fa3 	lsr	r2, r3, #31
    a0dc:	e0823003 	add	r3, r2, r3
    a0e0:	e1a030c3 	asr	r3, r3, #1
    a0e4:	e1a02003 	mov	r2, r3
    a0e8:	e51b300c 	ldr	r3, [fp, #-12]
    a0ec:	e1530002 	cmp	r3, r2
    a0f0:	ca00001b 	bgt	a164 <_Z4itoajPcj+0x164>
/home/schenkj/os2022/sp/sources/stdlib/src/stdstring.cpp:32 (discriminator 2)
	{
		char c = output[i - j];
    a0f4:	e51b2008 	ldr	r2, [fp, #-8]
    a0f8:	e51b300c 	ldr	r3, [fp, #-12]
    a0fc:	e0423003 	sub	r3, r2, r3
    a100:	e1a02003 	mov	r2, r3
    a104:	e51b301c 	ldr	r3, [fp, #-28]	; 0xffffffe4
    a108:	e0833002 	add	r3, r3, r2
    a10c:	e5d33000 	ldrb	r3, [r3]
    a110:	e54b300d 	strb	r3, [fp, #-13]
/home/schenkj/os2022/sp/sources/stdlib/src/stdstring.cpp:33 (discriminator 2)
		output[i - j] = output[j];
    a114:	e51b300c 	ldr	r3, [fp, #-12]
    a118:	e51b201c 	ldr	r2, [fp, #-28]	; 0xffffffe4
    a11c:	e0822003 	add	r2, r2, r3
    a120:	e51b1008 	ldr	r1, [fp, #-8]
    a124:	e51b300c 	ldr	r3, [fp, #-12]
    a128:	e0413003 	sub	r3, r1, r3
    a12c:	e1a01003 	mov	r1, r3
    a130:	e51b301c 	ldr	r3, [fp, #-28]	; 0xffffffe4
    a134:	e0833001 	add	r3, r3, r1
    a138:	e5d22000 	ldrb	r2, [r2]
    a13c:	e5c32000 	strb	r2, [r3]
/home/schenkj/os2022/sp/sources/stdlib/src/stdstring.cpp:34 (discriminator 2)
		output[j] = c;
    a140:	e51b300c 	ldr	r3, [fp, #-12]
    a144:	e51b201c 	ldr	r2, [fp, #-28]	; 0xffffffe4
    a148:	e0823003 	add	r3, r2, r3
    a14c:	e55b200d 	ldrb	r2, [fp, #-13]
    a150:	e5c32000 	strb	r2, [r3]
/home/schenkj/os2022/sp/sources/stdlib/src/stdstring.cpp:30 (discriminator 2)
	for (int j = 0; j <= i/2; j++)
    a154:	e51b300c 	ldr	r3, [fp, #-12]
    a158:	e2833001 	add	r3, r3, #1
    a15c:	e50b300c 	str	r3, [fp, #-12]
    a160:	eaffffdb 	b	a0d4 <_Z4itoajPcj+0xd4>
/home/schenkj/os2022/sp/sources/stdlib/src/stdstring.cpp:36
	}
}
    a164:	e320f000 	nop	{0}
    a168:	e24bd004 	sub	sp, fp, #4
    a16c:	e8bd8800 	pop	{fp, pc}
    a170:	0000b420 	andeq	fp, r0, r0, lsr #8

0000a174 <_Z4atoiPKc>:
_Z4atoiPKc():
/home/schenkj/os2022/sp/sources/stdlib/src/stdstring.cpp:39

int atoi(const char* input)
{
    a174:	e52db004 	push	{fp}		; (str fp, [sp, #-4]!)
    a178:	e28db000 	add	fp, sp, #0
    a17c:	e24dd014 	sub	sp, sp, #20
    a180:	e50b0010 	str	r0, [fp, #-16]
/home/schenkj/os2022/sp/sources/stdlib/src/stdstring.cpp:40
	int output = 0;
    a184:	e3a03000 	mov	r3, #0
    a188:	e50b3008 	str	r3, [fp, #-8]
/home/schenkj/os2022/sp/sources/stdlib/src/stdstring.cpp:42

	while (*input != '\0')
    a18c:	e51b3010 	ldr	r3, [fp, #-16]
    a190:	e5d33000 	ldrb	r3, [r3]
    a194:	e3530000 	cmp	r3, #0
    a198:	0a000017 	beq	a1fc <_Z4atoiPKc+0x88>
/home/schenkj/os2022/sp/sources/stdlib/src/stdstring.cpp:44
	{
		output *= 10;
    a19c:	e51b2008 	ldr	r2, [fp, #-8]
    a1a0:	e1a03002 	mov	r3, r2
    a1a4:	e1a03103 	lsl	r3, r3, #2
    a1a8:	e0833002 	add	r3, r3, r2
    a1ac:	e1a03083 	lsl	r3, r3, #1
    a1b0:	e50b3008 	str	r3, [fp, #-8]
/home/schenkj/os2022/sp/sources/stdlib/src/stdstring.cpp:45
		if (*input > '9' || *input < '0')
    a1b4:	e51b3010 	ldr	r3, [fp, #-16]
    a1b8:	e5d33000 	ldrb	r3, [r3]
    a1bc:	e3530039 	cmp	r3, #57	; 0x39
    a1c0:	8a00000d 	bhi	a1fc <_Z4atoiPKc+0x88>
/home/schenkj/os2022/sp/sources/stdlib/src/stdstring.cpp:45 (discriminator 1)
    a1c4:	e51b3010 	ldr	r3, [fp, #-16]
    a1c8:	e5d33000 	ldrb	r3, [r3]
    a1cc:	e353002f 	cmp	r3, #47	; 0x2f
    a1d0:	9a000009 	bls	a1fc <_Z4atoiPKc+0x88>
/home/schenkj/os2022/sp/sources/stdlib/src/stdstring.cpp:48
			break;

		output += *input - '0';
    a1d4:	e51b3010 	ldr	r3, [fp, #-16]
    a1d8:	e5d33000 	ldrb	r3, [r3]
    a1dc:	e2433030 	sub	r3, r3, #48	; 0x30
    a1e0:	e51b2008 	ldr	r2, [fp, #-8]
    a1e4:	e0823003 	add	r3, r2, r3
    a1e8:	e50b3008 	str	r3, [fp, #-8]
/home/schenkj/os2022/sp/sources/stdlib/src/stdstring.cpp:50

		input++;
    a1ec:	e51b3010 	ldr	r3, [fp, #-16]
    a1f0:	e2833001 	add	r3, r3, #1
    a1f4:	e50b3010 	str	r3, [fp, #-16]
/home/schenkj/os2022/sp/sources/stdlib/src/stdstring.cpp:42
	while (*input != '\0')
    a1f8:	eaffffe3 	b	a18c <_Z4atoiPKc+0x18>
/home/schenkj/os2022/sp/sources/stdlib/src/stdstring.cpp:53
	}

	return output;
    a1fc:	e51b3008 	ldr	r3, [fp, #-8]
/home/schenkj/os2022/sp/sources/stdlib/src/stdstring.cpp:54
}
    a200:	e1a00003 	mov	r0, r3
    a204:	e28bd000 	add	sp, fp, #0
    a208:	e49db004 	pop	{fp}		; (ldr fp, [sp], #4)
    a20c:	e12fff1e 	bx	lr

0000a210 <_Z9normalizePf>:
_Z9normalizePf():
/home/schenkj/os2022/sp/sources/stdlib/src/stdstring.cpp:57


int normalize(float *val) {
    a210:	e52db004 	push	{fp}		; (str fp, [sp, #-4]!)
    a214:	e28db000 	add	fp, sp, #0
    a218:	e24dd014 	sub	sp, sp, #20
    a21c:	e50b0010 	str	r0, [fp, #-16]
/home/schenkj/os2022/sp/sources/stdlib/src/stdstring.cpp:58
    int exponent = 0;
    a220:	e3a03000 	mov	r3, #0
    a224:	e50b3008 	str	r3, [fp, #-8]
/home/schenkj/os2022/sp/sources/stdlib/src/stdstring.cpp:59
    float value = *val;
    a228:	e51b3010 	ldr	r3, [fp, #-16]
    a22c:	e5933000 	ldr	r3, [r3]
    a230:	e50b300c 	str	r3, [fp, #-12]
/home/schenkj/os2022/sp/sources/stdlib/src/stdstring.cpp:61

    while (value >= 1.0) {
    a234:	ed5b7a03 	vldr	s15, [fp, #-12]
    a238:	ed9f7a24 	vldr	s14, [pc, #144]	; a2d0 <_Z9normalizePf+0xc0>
    a23c:	eef47ac7 	vcmpe.f32	s15, s14
    a240:	eef1fa10 	vmrs	APSR_nzcv, fpscr
    a244:	aa000000 	bge	a24c <_Z9normalizePf+0x3c>
    a248:	ea000007 	b	a26c <_Z9normalizePf+0x5c>
/home/schenkj/os2022/sp/sources/stdlib/src/stdstring.cpp:62
        value = value / 10.0;
    a24c:	ed1b7a03 	vldr	s14, [fp, #-12]
    a250:	eddf6a1f 	vldr	s13, [pc, #124]	; a2d4 <_Z9normalizePf+0xc4>
    a254:	eec77a26 	vdiv.f32	s15, s14, s13
    a258:	ed4b7a03 	vstr	s15, [fp, #-12]
/home/schenkj/os2022/sp/sources/stdlib/src/stdstring.cpp:63
        ++exponent;
    a25c:	e51b3008 	ldr	r3, [fp, #-8]
    a260:	e2833001 	add	r3, r3, #1
    a264:	e50b3008 	str	r3, [fp, #-8]
/home/schenkj/os2022/sp/sources/stdlib/src/stdstring.cpp:61
    while (value >= 1.0) {
    a268:	eafffff1 	b	a234 <_Z9normalizePf+0x24>
/home/schenkj/os2022/sp/sources/stdlib/src/stdstring.cpp:66
    }

    while (value < 0.1) {
    a26c:	ed5b7a03 	vldr	s15, [fp, #-12]
    a270:	eeb77ae7 	vcvt.f64.f32	d7, s15
    a274:	ed9f6b13 	vldr	d6, [pc, #76]	; a2c8 <_Z9normalizePf+0xb8>
    a278:	eeb47bc6 	vcmpe.f64	d7, d6
    a27c:	eef1fa10 	vmrs	APSR_nzcv, fpscr
    a280:	5a000007 	bpl	a2a4 <_Z9normalizePf+0x94>
/home/schenkj/os2022/sp/sources/stdlib/src/stdstring.cpp:67
        value = value * 10.0;
    a284:	ed5b7a03 	vldr	s15, [fp, #-12]
    a288:	ed9f7a11 	vldr	s14, [pc, #68]	; a2d4 <_Z9normalizePf+0xc4>
    a28c:	ee677a87 	vmul.f32	s15, s15, s14
    a290:	ed4b7a03 	vstr	s15, [fp, #-12]
/home/schenkj/os2022/sp/sources/stdlib/src/stdstring.cpp:68
        --exponent;
    a294:	e51b3008 	ldr	r3, [fp, #-8]
    a298:	e2433001 	sub	r3, r3, #1
    a29c:	e50b3008 	str	r3, [fp, #-8]
/home/schenkj/os2022/sp/sources/stdlib/src/stdstring.cpp:66
    while (value < 0.1) {
    a2a0:	eafffff1 	b	a26c <_Z9normalizePf+0x5c>
/home/schenkj/os2022/sp/sources/stdlib/src/stdstring.cpp:70
    }
    *val = value;
    a2a4:	e51b3010 	ldr	r3, [fp, #-16]
    a2a8:	e51b200c 	ldr	r2, [fp, #-12]
    a2ac:	e5832000 	str	r2, [r3]
/home/schenkj/os2022/sp/sources/stdlib/src/stdstring.cpp:71
    return exponent;
    a2b0:	e51b3008 	ldr	r3, [fp, #-8]
/home/schenkj/os2022/sp/sources/stdlib/src/stdstring.cpp:72
}
    a2b4:	e1a00003 	mov	r0, r3
    a2b8:	e28bd000 	add	sp, fp, #0
    a2bc:	e49db004 	pop	{fp}		; (ldr fp, [sp], #4)
    a2c0:	e12fff1e 	bx	lr
    a2c4:	e320f000 	nop	{0}
    a2c8:	9999999a 	ldmibls	r9, {r1, r3, r4, r7, r8, fp, ip, pc}
    a2cc:	3fb99999 	svccc	0x00b99999
    a2d0:	3f800000 	svccc	0x00800000
    a2d4:	41200000 			; <UNDEFINED> instruction: 0x41200000

0000a2d8 <_Z4atofPKc>:
_Z4atofPKc():
/home/schenkj/os2022/sp/sources/stdlib/src/stdstring.cpp:75

float atof(const char *s)
{
    a2d8:	e52db004 	push	{fp}		; (str fp, [sp, #-4]!)
    a2dc:	e28db000 	add	fp, sp, #0
    a2e0:	e24dd024 	sub	sp, sp, #36	; 0x24
    a2e4:	e50b0020 	str	r0, [fp, #-32]	; 0xffffffe0
/home/schenkj/os2022/sp/sources/stdlib/src/stdstring.cpp:76
  float a = 0.0;
    a2e8:	e3a03000 	mov	r3, #0
    a2ec:	e50b3008 	str	r3, [fp, #-8]
/home/schenkj/os2022/sp/sources/stdlib/src/stdstring.cpp:77
  int e = 0;
    a2f0:	e3a03000 	mov	r3, #0
    a2f4:	e50b300c 	str	r3, [fp, #-12]
/home/schenkj/os2022/sp/sources/stdlib/src/stdstring.cpp:79
  int c;
  while ((c = *s++) != '\0' && digit_range(c)) {
    a2f8:	e51b3020 	ldr	r3, [fp, #-32]	; 0xffffffe0
    a2fc:	e2832001 	add	r2, r3, #1
    a300:	e50b2020 	str	r2, [fp, #-32]	; 0xffffffe0
    a304:	e5d33000 	ldrb	r3, [r3]
    a308:	e50b3010 	str	r3, [fp, #-16]
    a30c:	e51b3010 	ldr	r3, [fp, #-16]
    a310:	e3530000 	cmp	r3, #0
    a314:	0a000007 	beq	a338 <_Z4atofPKc+0x60>
/home/schenkj/os2022/sp/sources/stdlib/src/stdstring.cpp:79 (discriminator 1)
    a318:	e51b3010 	ldr	r3, [fp, #-16]
    a31c:	e353002f 	cmp	r3, #47	; 0x2f
    a320:	da000004 	ble	a338 <_Z4atofPKc+0x60>
/home/schenkj/os2022/sp/sources/stdlib/src/stdstring.cpp:79 (discriminator 3)
    a324:	e51b3010 	ldr	r3, [fp, #-16]
    a328:	e3530039 	cmp	r3, #57	; 0x39
    a32c:	ca000001 	bgt	a338 <_Z4atofPKc+0x60>
/home/schenkj/os2022/sp/sources/stdlib/src/stdstring.cpp:79 (discriminator 5)
    a330:	e3a03001 	mov	r3, #1
    a334:	ea000000 	b	a33c <_Z4atofPKc+0x64>
/home/schenkj/os2022/sp/sources/stdlib/src/stdstring.cpp:79 (discriminator 6)
    a338:	e3a03000 	mov	r3, #0
/home/schenkj/os2022/sp/sources/stdlib/src/stdstring.cpp:79 (discriminator 8)
    a33c:	e3530000 	cmp	r3, #0
    a340:	0a00000b 	beq	a374 <_Z4atofPKc+0x9c>
/home/schenkj/os2022/sp/sources/stdlib/src/stdstring.cpp:80
    a = a*10.0 + (c - '0');
    a344:	ed5b7a02 	vldr	s15, [fp, #-8]
    a348:	eeb77ae7 	vcvt.f64.f32	d7, s15
    a34c:	ed9f6b89 	vldr	d6, [pc, #548]	; a578 <_Z4atofPKc+0x2a0>
    a350:	ee276b06 	vmul.f64	d6, d7, d6
    a354:	e51b3010 	ldr	r3, [fp, #-16]
    a358:	e2433030 	sub	r3, r3, #48	; 0x30
    a35c:	ee073a90 	vmov	s15, r3
    a360:	eeb87be7 	vcvt.f64.s32	d7, s15
    a364:	ee367b07 	vadd.f64	d7, d6, d7
    a368:	eef77bc7 	vcvt.f32.f64	s15, d7
    a36c:	ed4b7a02 	vstr	s15, [fp, #-8]
/home/schenkj/os2022/sp/sources/stdlib/src/stdstring.cpp:79
  while ((c = *s++) != '\0' && digit_range(c)) {
    a370:	eaffffe0 	b	a2f8 <_Z4atofPKc+0x20>
/home/schenkj/os2022/sp/sources/stdlib/src/stdstring.cpp:82
  }
  if (c == '.') {
    a374:	e51b3010 	ldr	r3, [fp, #-16]
    a378:	e353002e 	cmp	r3, #46	; 0x2e
    a37c:	1a000021 	bne	a408 <_Z4atofPKc+0x130>
/home/schenkj/os2022/sp/sources/stdlib/src/stdstring.cpp:83
    while ((c = *s++) != '\0' && digit_range(c)) {
    a380:	e51b3020 	ldr	r3, [fp, #-32]	; 0xffffffe0
    a384:	e2832001 	add	r2, r3, #1
    a388:	e50b2020 	str	r2, [fp, #-32]	; 0xffffffe0
    a38c:	e5d33000 	ldrb	r3, [r3]
    a390:	e50b3010 	str	r3, [fp, #-16]
    a394:	e51b3010 	ldr	r3, [fp, #-16]
    a398:	e3530000 	cmp	r3, #0
    a39c:	0a000007 	beq	a3c0 <_Z4atofPKc+0xe8>
/home/schenkj/os2022/sp/sources/stdlib/src/stdstring.cpp:83 (discriminator 1)
    a3a0:	e51b3010 	ldr	r3, [fp, #-16]
    a3a4:	e353002f 	cmp	r3, #47	; 0x2f
    a3a8:	da000004 	ble	a3c0 <_Z4atofPKc+0xe8>
/home/schenkj/os2022/sp/sources/stdlib/src/stdstring.cpp:83 (discriminator 3)
    a3ac:	e51b3010 	ldr	r3, [fp, #-16]
    a3b0:	e3530039 	cmp	r3, #57	; 0x39
    a3b4:	ca000001 	bgt	a3c0 <_Z4atofPKc+0xe8>
/home/schenkj/os2022/sp/sources/stdlib/src/stdstring.cpp:83 (discriminator 5)
    a3b8:	e3a03001 	mov	r3, #1
    a3bc:	ea000000 	b	a3c4 <_Z4atofPKc+0xec>
/home/schenkj/os2022/sp/sources/stdlib/src/stdstring.cpp:83 (discriminator 6)
    a3c0:	e3a03000 	mov	r3, #0
/home/schenkj/os2022/sp/sources/stdlib/src/stdstring.cpp:83 (discriminator 8)
    a3c4:	e3530000 	cmp	r3, #0
    a3c8:	0a00000e 	beq	a408 <_Z4atofPKc+0x130>
/home/schenkj/os2022/sp/sources/stdlib/src/stdstring.cpp:84
      a = a*10.0 + (c - '0');
    a3cc:	ed5b7a02 	vldr	s15, [fp, #-8]
    a3d0:	eeb77ae7 	vcvt.f64.f32	d7, s15
    a3d4:	ed9f6b67 	vldr	d6, [pc, #412]	; a578 <_Z4atofPKc+0x2a0>
    a3d8:	ee276b06 	vmul.f64	d6, d7, d6
    a3dc:	e51b3010 	ldr	r3, [fp, #-16]
    a3e0:	e2433030 	sub	r3, r3, #48	; 0x30
    a3e4:	ee073a90 	vmov	s15, r3
    a3e8:	eeb87be7 	vcvt.f64.s32	d7, s15
    a3ec:	ee367b07 	vadd.f64	d7, d6, d7
    a3f0:	eef77bc7 	vcvt.f32.f64	s15, d7
    a3f4:	ed4b7a02 	vstr	s15, [fp, #-8]
/home/schenkj/os2022/sp/sources/stdlib/src/stdstring.cpp:85
      e = e-1;
    a3f8:	e51b300c 	ldr	r3, [fp, #-12]
    a3fc:	e2433001 	sub	r3, r3, #1
    a400:	e50b300c 	str	r3, [fp, #-12]
/home/schenkj/os2022/sp/sources/stdlib/src/stdstring.cpp:83
    while ((c = *s++) != '\0' && digit_range(c)) {
    a404:	eaffffdd 	b	a380 <_Z4atofPKc+0xa8>
/home/schenkj/os2022/sp/sources/stdlib/src/stdstring.cpp:88
    }
  }
  if (c == 'e' || c == 'E') {
    a408:	e51b3010 	ldr	r3, [fp, #-16]
    a40c:	e3530065 	cmp	r3, #101	; 0x65
    a410:	0a000002 	beq	a420 <_Z4atofPKc+0x148>
/home/schenkj/os2022/sp/sources/stdlib/src/stdstring.cpp:88 (discriminator 1)
    a414:	e51b3010 	ldr	r3, [fp, #-16]
    a418:	e3530045 	cmp	r3, #69	; 0x45
    a41c:	1a000037 	bne	a500 <_Z4atofPKc+0x228>
/home/schenkj/os2022/sp/sources/stdlib/src/stdstring.cpp:89
    int sign = 1;
    a420:	e3a03001 	mov	r3, #1
    a424:	e50b3014 	str	r3, [fp, #-20]	; 0xffffffec
/home/schenkj/os2022/sp/sources/stdlib/src/stdstring.cpp:90
    int i = 0;
    a428:	e3a03000 	mov	r3, #0
    a42c:	e50b3018 	str	r3, [fp, #-24]	; 0xffffffe8
/home/schenkj/os2022/sp/sources/stdlib/src/stdstring.cpp:91
    c = *s++;
    a430:	e51b3020 	ldr	r3, [fp, #-32]	; 0xffffffe0
    a434:	e2832001 	add	r2, r3, #1
    a438:	e50b2020 	str	r2, [fp, #-32]	; 0xffffffe0
    a43c:	e5d33000 	ldrb	r3, [r3]
    a440:	e50b3010 	str	r3, [fp, #-16]
/home/schenkj/os2022/sp/sources/stdlib/src/stdstring.cpp:92
    if (c == '+')
    a444:	e51b3010 	ldr	r3, [fp, #-16]
    a448:	e353002b 	cmp	r3, #43	; 0x2b
    a44c:	1a000005 	bne	a468 <_Z4atofPKc+0x190>
/home/schenkj/os2022/sp/sources/stdlib/src/stdstring.cpp:93
      c = *s++;
    a450:	e51b3020 	ldr	r3, [fp, #-32]	; 0xffffffe0
    a454:	e2832001 	add	r2, r3, #1
    a458:	e50b2020 	str	r2, [fp, #-32]	; 0xffffffe0
    a45c:	e5d33000 	ldrb	r3, [r3]
    a460:	e50b3010 	str	r3, [fp, #-16]
    a464:	ea000009 	b	a490 <_Z4atofPKc+0x1b8>
/home/schenkj/os2022/sp/sources/stdlib/src/stdstring.cpp:94
    else if (c == '-') {
    a468:	e51b3010 	ldr	r3, [fp, #-16]
    a46c:	e353002d 	cmp	r3, #45	; 0x2d
    a470:	1a000006 	bne	a490 <_Z4atofPKc+0x1b8>
/home/schenkj/os2022/sp/sources/stdlib/src/stdstring.cpp:95
      c = *s++;
    a474:	e51b3020 	ldr	r3, [fp, #-32]	; 0xffffffe0
    a478:	e2832001 	add	r2, r3, #1
    a47c:	e50b2020 	str	r2, [fp, #-32]	; 0xffffffe0
    a480:	e5d33000 	ldrb	r3, [r3]
    a484:	e50b3010 	str	r3, [fp, #-16]
/home/schenkj/os2022/sp/sources/stdlib/src/stdstring.cpp:96
      sign = -1;
    a488:	e3e03000 	mvn	r3, #0
    a48c:	e50b3014 	str	r3, [fp, #-20]	; 0xffffffec
/home/schenkj/os2022/sp/sources/stdlib/src/stdstring.cpp:98
    }
    while (digit_range(c)) {
    a490:	e51b3010 	ldr	r3, [fp, #-16]
    a494:	e353002f 	cmp	r3, #47	; 0x2f
    a498:	da000012 	ble	a4e8 <_Z4atofPKc+0x210>
/home/schenkj/os2022/sp/sources/stdlib/src/stdstring.cpp:98 (discriminator 1)
    a49c:	e51b3010 	ldr	r3, [fp, #-16]
    a4a0:	e3530039 	cmp	r3, #57	; 0x39
    a4a4:	ca00000f 	bgt	a4e8 <_Z4atofPKc+0x210>
/home/schenkj/os2022/sp/sources/stdlib/src/stdstring.cpp:99
      i = i*10 + (c - '0');
    a4a8:	e51b2018 	ldr	r2, [fp, #-24]	; 0xffffffe8
    a4ac:	e1a03002 	mov	r3, r2
    a4b0:	e1a03103 	lsl	r3, r3, #2
    a4b4:	e0833002 	add	r3, r3, r2
    a4b8:	e1a03083 	lsl	r3, r3, #1
    a4bc:	e1a02003 	mov	r2, r3
    a4c0:	e51b3010 	ldr	r3, [fp, #-16]
    a4c4:	e2433030 	sub	r3, r3, #48	; 0x30
    a4c8:	e0823003 	add	r3, r2, r3
    a4cc:	e50b3018 	str	r3, [fp, #-24]	; 0xffffffe8
/home/schenkj/os2022/sp/sources/stdlib/src/stdstring.cpp:100
      c = *s++;
    a4d0:	e51b3020 	ldr	r3, [fp, #-32]	; 0xffffffe0
    a4d4:	e2832001 	add	r2, r3, #1
    a4d8:	e50b2020 	str	r2, [fp, #-32]	; 0xffffffe0
    a4dc:	e5d33000 	ldrb	r3, [r3]
    a4e0:	e50b3010 	str	r3, [fp, #-16]
/home/schenkj/os2022/sp/sources/stdlib/src/stdstring.cpp:98
    while (digit_range(c)) {
    a4e4:	eaffffe9 	b	a490 <_Z4atofPKc+0x1b8>
/home/schenkj/os2022/sp/sources/stdlib/src/stdstring.cpp:102
    }
    e += i*sign;
    a4e8:	e51b3018 	ldr	r3, [fp, #-24]	; 0xffffffe8
    a4ec:	e51b2014 	ldr	r2, [fp, #-20]	; 0xffffffec
    a4f0:	e0030392 	mul	r3, r2, r3
    a4f4:	e51b200c 	ldr	r2, [fp, #-12]
    a4f8:	e0823003 	add	r3, r2, r3
    a4fc:	e50b300c 	str	r3, [fp, #-12]
/home/schenkj/os2022/sp/sources/stdlib/src/stdstring.cpp:104
  }
  while (e > 0) {
    a500:	e51b300c 	ldr	r3, [fp, #-12]
    a504:	e3530000 	cmp	r3, #0
    a508:	da000007 	ble	a52c <_Z4atofPKc+0x254>
/home/schenkj/os2022/sp/sources/stdlib/src/stdstring.cpp:105
    a *= 10.0;
    a50c:	ed5b7a02 	vldr	s15, [fp, #-8]
    a510:	ed9f7a1c 	vldr	s14, [pc, #112]	; a588 <_Z4atofPKc+0x2b0>
    a514:	ee677a87 	vmul.f32	s15, s15, s14
    a518:	ed4b7a02 	vstr	s15, [fp, #-8]
/home/schenkj/os2022/sp/sources/stdlib/src/stdstring.cpp:106
    e--;
    a51c:	e51b300c 	ldr	r3, [fp, #-12]
    a520:	e2433001 	sub	r3, r3, #1
    a524:	e50b300c 	str	r3, [fp, #-12]
/home/schenkj/os2022/sp/sources/stdlib/src/stdstring.cpp:104
  while (e > 0) {
    a528:	eafffff4 	b	a500 <_Z4atofPKc+0x228>
/home/schenkj/os2022/sp/sources/stdlib/src/stdstring.cpp:108
  }
  while (e < 0) {
    a52c:	e51b300c 	ldr	r3, [fp, #-12]
    a530:	e3530000 	cmp	r3, #0
    a534:	aa000009 	bge	a560 <_Z4atofPKc+0x288>
/home/schenkj/os2022/sp/sources/stdlib/src/stdstring.cpp:109
    a *= 0.1;
    a538:	ed5b7a02 	vldr	s15, [fp, #-8]
    a53c:	eeb77ae7 	vcvt.f64.f32	d7, s15
    a540:	ed9f6b0e 	vldr	d6, [pc, #56]	; a580 <_Z4atofPKc+0x2a8>
    a544:	ee277b06 	vmul.f64	d7, d7, d6
    a548:	eef77bc7 	vcvt.f32.f64	s15, d7
    a54c:	ed4b7a02 	vstr	s15, [fp, #-8]
/home/schenkj/os2022/sp/sources/stdlib/src/stdstring.cpp:110
    e++;
    a550:	e51b300c 	ldr	r3, [fp, #-12]
    a554:	e2833001 	add	r3, r3, #1
    a558:	e50b300c 	str	r3, [fp, #-12]
/home/schenkj/os2022/sp/sources/stdlib/src/stdstring.cpp:108
  while (e < 0) {
    a55c:	eafffff2 	b	a52c <_Z4atofPKc+0x254>
/home/schenkj/os2022/sp/sources/stdlib/src/stdstring.cpp:112
  }
  return a;
    a560:	e51b3008 	ldr	r3, [fp, #-8]
    a564:	ee073a90 	vmov	s15, r3
/home/schenkj/os2022/sp/sources/stdlib/src/stdstring.cpp:113
}
    a568:	eeb00a67 	vmov.f32	s0, s15
    a56c:	e28bd000 	add	sp, fp, #0
    a570:	e49db004 	pop	{fp}		; (ldr fp, [sp], #4)
    a574:	e12fff1e 	bx	lr
    a578:	00000000 	andeq	r0, r0, r0
    a57c:	40240000 	eormi	r0, r4, r0
    a580:	9999999a 	ldmibls	r9, {r1, r3, r4, r7, r8, fp, ip, pc}
    a584:	3fb99999 	svccc	0x00b99999
    a588:	41200000 			; <UNDEFINED> instruction: 0x41200000

0000a58c <_Z4ftoaPcf>:
_Z4ftoaPcf():
/home/schenkj/os2022/sp/sources/stdlib/src/stdstring.cpp:115

void ftoa(char *buffer, float value) {  
    a58c:	e92d4800 	push	{fp, lr}
    a590:	e28db004 	add	fp, sp, #4
    a594:	e24dd020 	sub	sp, sp, #32
    a598:	e50b0020 	str	r0, [fp, #-32]	; 0xffffffe0
    a59c:	ed0b0a09 	vstr	s0, [fp, #-36]	; 0xffffffdc
/home/schenkj/os2022/sp/sources/stdlib/src/stdstring.cpp:116
    int exponent = 0;
    a5a0:	e3a03000 	mov	r3, #0
    a5a4:	e50b3008 	str	r3, [fp, #-8]
/home/schenkj/os2022/sp/sources/stdlib/src/stdstring.cpp:117
    int places = 0;
    a5a8:	e3a03000 	mov	r3, #0
    a5ac:	e50b300c 	str	r3, [fp, #-12]
/home/schenkj/os2022/sp/sources/stdlib/src/stdstring.cpp:118
    const int width = 6;
    a5b0:	e3a03006 	mov	r3, #6
    a5b4:	e50b3010 	str	r3, [fp, #-16]
/home/schenkj/os2022/sp/sources/stdlib/src/stdstring.cpp:120

    if (value == 0.0) {
    a5b8:	ed5b7a09 	vldr	s15, [fp, #-36]	; 0xffffffdc
    a5bc:	eef57a40 	vcmp.f32	s15, #0.0
    a5c0:	eef1fa10 	vmrs	APSR_nzcv, fpscr
    a5c4:	1a000007 	bne	a5e8 <_Z4ftoaPcf+0x5c>
/home/schenkj/os2022/sp/sources/stdlib/src/stdstring.cpp:121
        buffer[0] = '0';
    a5c8:	e51b3020 	ldr	r3, [fp, #-32]	; 0xffffffe0
    a5cc:	e3a02030 	mov	r2, #48	; 0x30
    a5d0:	e5c32000 	strb	r2, [r3]
/home/schenkj/os2022/sp/sources/stdlib/src/stdstring.cpp:122
        buffer[1] = '\0';
    a5d4:	e51b3020 	ldr	r3, [fp, #-32]	; 0xffffffe0
    a5d8:	e2833001 	add	r3, r3, #1
    a5dc:	e3a02000 	mov	r2, #0
    a5e0:	e5c32000 	strb	r2, [r3]
/home/schenkj/os2022/sp/sources/stdlib/src/stdstring.cpp:123
        return;
    a5e4:	ea000071 	b	a7b0 <_Z4ftoaPcf+0x224>
/home/schenkj/os2022/sp/sources/stdlib/src/stdstring.cpp:126
    } 

    if (value < 0.0) {
    a5e8:	ed5b7a09 	vldr	s15, [fp, #-36]	; 0xffffffdc
    a5ec:	eef57ac0 	vcmpe.f32	s15, #0.0
    a5f0:	eef1fa10 	vmrs	APSR_nzcv, fpscr
    a5f4:	5a000007 	bpl	a618 <_Z4ftoaPcf+0x8c>
/home/schenkj/os2022/sp/sources/stdlib/src/stdstring.cpp:127
        *buffer++ = '-';
    a5f8:	e51b3020 	ldr	r3, [fp, #-32]	; 0xffffffe0
    a5fc:	e2832001 	add	r2, r3, #1
    a600:	e50b2020 	str	r2, [fp, #-32]	; 0xffffffe0
    a604:	e3a0202d 	mov	r2, #45	; 0x2d
    a608:	e5c32000 	strb	r2, [r3]
/home/schenkj/os2022/sp/sources/stdlib/src/stdstring.cpp:128
        value = -value;
    a60c:	ed5b7a09 	vldr	s15, [fp, #-36]	; 0xffffffdc
    a610:	eef17a67 	vneg.f32	s15, s15
    a614:	ed4b7a09 	vstr	s15, [fp, #-36]	; 0xffffffdc
/home/schenkj/os2022/sp/sources/stdlib/src/stdstring.cpp:131
    }

    exponent = normalize(&value);
    a618:	e24b3024 	sub	r3, fp, #36	; 0x24
    a61c:	e1a00003 	mov	r0, r3
    a620:	ebfffefa 	bl	a210 <_Z9normalizePf>
    a624:	e50b0008 	str	r0, [fp, #-8]
/home/schenkj/os2022/sp/sources/stdlib/src/stdstring.cpp:133

    while (exponent > 0) {
    a628:	e51b3008 	ldr	r3, [fp, #-8]
    a62c:	e3530000 	cmp	r3, #0
    a630:	da00001c 	ble	a6a8 <_Z4ftoaPcf+0x11c>
/home/schenkj/os2022/sp/sources/stdlib/src/stdstring.cpp:134
        int digit = value * 10;
    a634:	ed5b7a09 	vldr	s15, [fp, #-36]	; 0xffffffdc
    a638:	ed9f7a60 	vldr	s14, [pc, #384]	; a7c0 <_Z4ftoaPcf+0x234>
    a63c:	ee677a87 	vmul.f32	s15, s15, s14
    a640:	eefd7ae7 	vcvt.s32.f32	s15, s15
    a644:	ee173a90 	vmov	r3, s15
    a648:	e50b3014 	str	r3, [fp, #-20]	; 0xffffffec
/home/schenkj/os2022/sp/sources/stdlib/src/stdstring.cpp:135
        *buffer++ = digit + '0';
    a64c:	e51b3014 	ldr	r3, [fp, #-20]	; 0xffffffec
    a650:	e6ef2073 	uxtb	r2, r3
    a654:	e51b3020 	ldr	r3, [fp, #-32]	; 0xffffffe0
    a658:	e2831001 	add	r1, r3, #1
    a65c:	e50b1020 	str	r1, [fp, #-32]	; 0xffffffe0
    a660:	e2822030 	add	r2, r2, #48	; 0x30
    a664:	e6ef2072 	uxtb	r2, r2
    a668:	e5c32000 	strb	r2, [r3]
/home/schenkj/os2022/sp/sources/stdlib/src/stdstring.cpp:136
        value = value * 10 - digit;
    a66c:	ed5b7a09 	vldr	s15, [fp, #-36]	; 0xffffffdc
    a670:	ed9f7a52 	vldr	s14, [pc, #328]	; a7c0 <_Z4ftoaPcf+0x234>
    a674:	ee277a87 	vmul.f32	s14, s15, s14
    a678:	e51b3014 	ldr	r3, [fp, #-20]	; 0xffffffec
    a67c:	ee073a90 	vmov	s15, r3
    a680:	eef87ae7 	vcvt.f32.s32	s15, s15
    a684:	ee777a67 	vsub.f32	s15, s14, s15
    a688:	ed4b7a09 	vstr	s15, [fp, #-36]	; 0xffffffdc
/home/schenkj/os2022/sp/sources/stdlib/src/stdstring.cpp:137
        ++places;
    a68c:	e51b300c 	ldr	r3, [fp, #-12]
    a690:	e2833001 	add	r3, r3, #1
    a694:	e50b300c 	str	r3, [fp, #-12]
/home/schenkj/os2022/sp/sources/stdlib/src/stdstring.cpp:138
        --exponent;
    a698:	e51b3008 	ldr	r3, [fp, #-8]
    a69c:	e2433001 	sub	r3, r3, #1
    a6a0:	e50b3008 	str	r3, [fp, #-8]
/home/schenkj/os2022/sp/sources/stdlib/src/stdstring.cpp:133
    while (exponent > 0) {
    a6a4:	eaffffdf 	b	a628 <_Z4ftoaPcf+0x9c>
/home/schenkj/os2022/sp/sources/stdlib/src/stdstring.cpp:141
    }

    if (places == 0)
    a6a8:	e51b300c 	ldr	r3, [fp, #-12]
    a6ac:	e3530000 	cmp	r3, #0
    a6b0:	1a000004 	bne	a6c8 <_Z4ftoaPcf+0x13c>
/home/schenkj/os2022/sp/sources/stdlib/src/stdstring.cpp:142
        *buffer++ = '0';
    a6b4:	e51b3020 	ldr	r3, [fp, #-32]	; 0xffffffe0
    a6b8:	e2832001 	add	r2, r3, #1
    a6bc:	e50b2020 	str	r2, [fp, #-32]	; 0xffffffe0
    a6c0:	e3a02030 	mov	r2, #48	; 0x30
    a6c4:	e5c32000 	strb	r2, [r3]
/home/schenkj/os2022/sp/sources/stdlib/src/stdstring.cpp:144

    *buffer++ = '.';
    a6c8:	e51b3020 	ldr	r3, [fp, #-32]	; 0xffffffe0
    a6cc:	e2832001 	add	r2, r3, #1
    a6d0:	e50b2020 	str	r2, [fp, #-32]	; 0xffffffe0
    a6d4:	e3a0202e 	mov	r2, #46	; 0x2e
    a6d8:	e5c32000 	strb	r2, [r3]
/home/schenkj/os2022/sp/sources/stdlib/src/stdstring.cpp:146

    while (exponent < 0 && places < width) {
    a6dc:	e51b3008 	ldr	r3, [fp, #-8]
    a6e0:	e3530000 	cmp	r3, #0
    a6e4:	aa00000e 	bge	a724 <_Z4ftoaPcf+0x198>
/home/schenkj/os2022/sp/sources/stdlib/src/stdstring.cpp:146 (discriminator 1)
    a6e8:	e51b300c 	ldr	r3, [fp, #-12]
    a6ec:	e3530005 	cmp	r3, #5
    a6f0:	ca00000b 	bgt	a724 <_Z4ftoaPcf+0x198>
/home/schenkj/os2022/sp/sources/stdlib/src/stdstring.cpp:147
        *buffer++ = '0';
    a6f4:	e51b3020 	ldr	r3, [fp, #-32]	; 0xffffffe0
    a6f8:	e2832001 	add	r2, r3, #1
    a6fc:	e50b2020 	str	r2, [fp, #-32]	; 0xffffffe0
    a700:	e3a02030 	mov	r2, #48	; 0x30
    a704:	e5c32000 	strb	r2, [r3]
/home/schenkj/os2022/sp/sources/stdlib/src/stdstring.cpp:148
        --exponent;
    a708:	e51b3008 	ldr	r3, [fp, #-8]
    a70c:	e2433001 	sub	r3, r3, #1
    a710:	e50b3008 	str	r3, [fp, #-8]
/home/schenkj/os2022/sp/sources/stdlib/src/stdstring.cpp:149
        ++places;
    a714:	e51b300c 	ldr	r3, [fp, #-12]
    a718:	e2833001 	add	r3, r3, #1
    a71c:	e50b300c 	str	r3, [fp, #-12]
/home/schenkj/os2022/sp/sources/stdlib/src/stdstring.cpp:146
    while (exponent < 0 && places < width) {
    a720:	eaffffed 	b	a6dc <_Z4ftoaPcf+0x150>
/home/schenkj/os2022/sp/sources/stdlib/src/stdstring.cpp:152
    }

    while (places < width) {
    a724:	e51b300c 	ldr	r3, [fp, #-12]
    a728:	e3530005 	cmp	r3, #5
    a72c:	ca00001c 	bgt	a7a4 <_Z4ftoaPcf+0x218>
/home/schenkj/os2022/sp/sources/stdlib/src/stdstring.cpp:153
        int digit = value * 10.0;
    a730:	ed5b7a09 	vldr	s15, [fp, #-36]	; 0xffffffdc
    a734:	eeb77ae7 	vcvt.f64.f32	d7, s15
    a738:	ed9f6b1e 	vldr	d6, [pc, #120]	; a7b8 <_Z4ftoaPcf+0x22c>
    a73c:	ee277b06 	vmul.f64	d7, d7, d6
    a740:	eefd7bc7 	vcvt.s32.f64	s15, d7
    a744:	ee173a90 	vmov	r3, s15
    a748:	e50b3018 	str	r3, [fp, #-24]	; 0xffffffe8
/home/schenkj/os2022/sp/sources/stdlib/src/stdstring.cpp:154
        *buffer++ = digit + '0';
    a74c:	e51b3018 	ldr	r3, [fp, #-24]	; 0xffffffe8
    a750:	e6ef2073 	uxtb	r2, r3
    a754:	e51b3020 	ldr	r3, [fp, #-32]	; 0xffffffe0
    a758:	e2831001 	add	r1, r3, #1
    a75c:	e50b1020 	str	r1, [fp, #-32]	; 0xffffffe0
    a760:	e2822030 	add	r2, r2, #48	; 0x30
    a764:	e6ef2072 	uxtb	r2, r2
    a768:	e5c32000 	strb	r2, [r3]
/home/schenkj/os2022/sp/sources/stdlib/src/stdstring.cpp:155
        value = value * 10.0 - digit;
    a76c:	ed5b7a09 	vldr	s15, [fp, #-36]	; 0xffffffdc
    a770:	eeb77ae7 	vcvt.f64.f32	d7, s15
    a774:	ed9f6b0f 	vldr	d6, [pc, #60]	; a7b8 <_Z4ftoaPcf+0x22c>
    a778:	ee276b06 	vmul.f64	d6, d7, d6
    a77c:	e51b3018 	ldr	r3, [fp, #-24]	; 0xffffffe8
    a780:	ee073a90 	vmov	s15, r3
    a784:	eeb87be7 	vcvt.f64.s32	d7, s15
    a788:	ee367b47 	vsub.f64	d7, d6, d7
    a78c:	eef77bc7 	vcvt.f32.f64	s15, d7
    a790:	ed4b7a09 	vstr	s15, [fp, #-36]	; 0xffffffdc
/home/schenkj/os2022/sp/sources/stdlib/src/stdstring.cpp:156
        ++places;
    a794:	e51b300c 	ldr	r3, [fp, #-12]
    a798:	e2833001 	add	r3, r3, #1
    a79c:	e50b300c 	str	r3, [fp, #-12]
/home/schenkj/os2022/sp/sources/stdlib/src/stdstring.cpp:152
    while (places < width) {
    a7a0:	eaffffdf 	b	a724 <_Z4ftoaPcf+0x198>
/home/schenkj/os2022/sp/sources/stdlib/src/stdstring.cpp:158
    }
    *buffer = '\0';
    a7a4:	e51b3020 	ldr	r3, [fp, #-32]	; 0xffffffe0
    a7a8:	e3a02000 	mov	r2, #0
    a7ac:	e5c32000 	strb	r2, [r3]
/home/schenkj/os2022/sp/sources/stdlib/src/stdstring.cpp:159
}
    a7b0:	e24bd004 	sub	sp, fp, #4
    a7b4:	e8bd8800 	pop	{fp, pc}
    a7b8:	00000000 	andeq	r0, r0, r0
    a7bc:	40240000 	eormi	r0, r4, r0
    a7c0:	41200000 			; <UNDEFINED> instruction: 0x41200000

0000a7c4 <_Z7strncpyPcPKci>:
_Z7strncpyPcPKci():
/home/schenkj/os2022/sp/sources/stdlib/src/stdstring.cpp:162

char* strncpy(char* dest, const char *src, int num)
{
    a7c4:	e52db004 	push	{fp}		; (str fp, [sp, #-4]!)
    a7c8:	e28db000 	add	fp, sp, #0
    a7cc:	e24dd01c 	sub	sp, sp, #28
    a7d0:	e50b0010 	str	r0, [fp, #-16]
    a7d4:	e50b1014 	str	r1, [fp, #-20]	; 0xffffffec
    a7d8:	e50b2018 	str	r2, [fp, #-24]	; 0xffffffe8
/home/schenkj/os2022/sp/sources/stdlib/src/stdstring.cpp:165
	int i;

	for (i = 0; i < num && src[i] != '\0'; i++)
    a7dc:	e3a03000 	mov	r3, #0
    a7e0:	e50b3008 	str	r3, [fp, #-8]
/home/schenkj/os2022/sp/sources/stdlib/src/stdstring.cpp:165 (discriminator 4)
    a7e4:	e51b2008 	ldr	r2, [fp, #-8]
    a7e8:	e51b3018 	ldr	r3, [fp, #-24]	; 0xffffffe8
    a7ec:	e1520003 	cmp	r2, r3
    a7f0:	aa000011 	bge	a83c <_Z7strncpyPcPKci+0x78>
/home/schenkj/os2022/sp/sources/stdlib/src/stdstring.cpp:165 (discriminator 2)
    a7f4:	e51b3008 	ldr	r3, [fp, #-8]
    a7f8:	e51b2014 	ldr	r2, [fp, #-20]	; 0xffffffec
    a7fc:	e0823003 	add	r3, r2, r3
    a800:	e5d33000 	ldrb	r3, [r3]
    a804:	e3530000 	cmp	r3, #0
    a808:	0a00000b 	beq	a83c <_Z7strncpyPcPKci+0x78>
/home/schenkj/os2022/sp/sources/stdlib/src/stdstring.cpp:166 (discriminator 3)
		dest[i] = src[i];
    a80c:	e51b3008 	ldr	r3, [fp, #-8]
    a810:	e51b2014 	ldr	r2, [fp, #-20]	; 0xffffffec
    a814:	e0822003 	add	r2, r2, r3
    a818:	e51b3008 	ldr	r3, [fp, #-8]
    a81c:	e51b1010 	ldr	r1, [fp, #-16]
    a820:	e0813003 	add	r3, r1, r3
    a824:	e5d22000 	ldrb	r2, [r2]
    a828:	e5c32000 	strb	r2, [r3]
/home/schenkj/os2022/sp/sources/stdlib/src/stdstring.cpp:165 (discriminator 3)
	for (i = 0; i < num && src[i] != '\0'; i++)
    a82c:	e51b3008 	ldr	r3, [fp, #-8]
    a830:	e2833001 	add	r3, r3, #1
    a834:	e50b3008 	str	r3, [fp, #-8]
    a838:	eaffffe9 	b	a7e4 <_Z7strncpyPcPKci+0x20>
/home/schenkj/os2022/sp/sources/stdlib/src/stdstring.cpp:167 (discriminator 2)
	for (; i < num; i++)
    a83c:	e51b2008 	ldr	r2, [fp, #-8]
    a840:	e51b3018 	ldr	r3, [fp, #-24]	; 0xffffffe8
    a844:	e1520003 	cmp	r2, r3
    a848:	aa000008 	bge	a870 <_Z7strncpyPcPKci+0xac>
/home/schenkj/os2022/sp/sources/stdlib/src/stdstring.cpp:168 (discriminator 1)
		dest[i] = '\0';
    a84c:	e51b3008 	ldr	r3, [fp, #-8]
    a850:	e51b2010 	ldr	r2, [fp, #-16]
    a854:	e0823003 	add	r3, r2, r3
    a858:	e3a02000 	mov	r2, #0
    a85c:	e5c32000 	strb	r2, [r3]
/home/schenkj/os2022/sp/sources/stdlib/src/stdstring.cpp:167 (discriminator 1)
	for (; i < num; i++)
    a860:	e51b3008 	ldr	r3, [fp, #-8]
    a864:	e2833001 	add	r3, r3, #1
    a868:	e50b3008 	str	r3, [fp, #-8]
    a86c:	eafffff2 	b	a83c <_Z7strncpyPcPKci+0x78>
/home/schenkj/os2022/sp/sources/stdlib/src/stdstring.cpp:170

   return dest;
    a870:	e51b3010 	ldr	r3, [fp, #-16]
/home/schenkj/os2022/sp/sources/stdlib/src/stdstring.cpp:171
}
    a874:	e1a00003 	mov	r0, r3
    a878:	e28bd000 	add	sp, fp, #0
    a87c:	e49db004 	pop	{fp}		; (ldr fp, [sp], #4)
    a880:	e12fff1e 	bx	lr

0000a884 <_Z6strcatPcPKc>:
_Z6strcatPcPKc():
/home/schenkj/os2022/sp/sources/stdlib/src/stdstring.cpp:174

char* strcat(char *dest, const char *src)
{
    a884:	e52db004 	push	{fp}		; (str fp, [sp, #-4]!)
    a888:	e28db000 	add	fp, sp, #0
    a88c:	e24dd014 	sub	sp, sp, #20
    a890:	e50b0010 	str	r0, [fp, #-16]
    a894:	e50b1014 	str	r1, [fp, #-20]	; 0xffffffec
/home/schenkj/os2022/sp/sources/stdlib/src/stdstring.cpp:177
    int i,j;

    for (i = 0; dest[i] != '\0'; i++)
    a898:	e3a03000 	mov	r3, #0
    a89c:	e50b3008 	str	r3, [fp, #-8]
/home/schenkj/os2022/sp/sources/stdlib/src/stdstring.cpp:177 (discriminator 3)
    a8a0:	e51b3008 	ldr	r3, [fp, #-8]
    a8a4:	e51b2010 	ldr	r2, [fp, #-16]
    a8a8:	e0823003 	add	r3, r2, r3
    a8ac:	e5d33000 	ldrb	r3, [r3]
    a8b0:	e3530000 	cmp	r3, #0
    a8b4:	0a000003 	beq	a8c8 <_Z6strcatPcPKc+0x44>
/home/schenkj/os2022/sp/sources/stdlib/src/stdstring.cpp:177 (discriminator 2)
    a8b8:	e51b3008 	ldr	r3, [fp, #-8]
    a8bc:	e2833001 	add	r3, r3, #1
    a8c0:	e50b3008 	str	r3, [fp, #-8]
    a8c4:	eafffff5 	b	a8a0 <_Z6strcatPcPKc+0x1c>
/home/schenkj/os2022/sp/sources/stdlib/src/stdstring.cpp:179
        ;
    for (j = 0; src[j] != '\0'; j++)
    a8c8:	e3a03000 	mov	r3, #0
    a8cc:	e50b300c 	str	r3, [fp, #-12]
/home/schenkj/os2022/sp/sources/stdlib/src/stdstring.cpp:179 (discriminator 3)
    a8d0:	e51b300c 	ldr	r3, [fp, #-12]
    a8d4:	e51b2014 	ldr	r2, [fp, #-20]	; 0xffffffec
    a8d8:	e0823003 	add	r3, r2, r3
    a8dc:	e5d33000 	ldrb	r3, [r3]
    a8e0:	e3530000 	cmp	r3, #0
    a8e4:	0a00000e 	beq	a924 <_Z6strcatPcPKc+0xa0>
/home/schenkj/os2022/sp/sources/stdlib/src/stdstring.cpp:180 (discriminator 2)
        dest[i+j] = src[j];
    a8e8:	e51b300c 	ldr	r3, [fp, #-12]
    a8ec:	e51b2014 	ldr	r2, [fp, #-20]	; 0xffffffec
    a8f0:	e0822003 	add	r2, r2, r3
    a8f4:	e51b1008 	ldr	r1, [fp, #-8]
    a8f8:	e51b300c 	ldr	r3, [fp, #-12]
    a8fc:	e0813003 	add	r3, r1, r3
    a900:	e1a01003 	mov	r1, r3
    a904:	e51b3010 	ldr	r3, [fp, #-16]
    a908:	e0833001 	add	r3, r3, r1
    a90c:	e5d22000 	ldrb	r2, [r2]
    a910:	e5c32000 	strb	r2, [r3]
/home/schenkj/os2022/sp/sources/stdlib/src/stdstring.cpp:179 (discriminator 2)
    for (j = 0; src[j] != '\0'; j++)
    a914:	e51b300c 	ldr	r3, [fp, #-12]
    a918:	e2833001 	add	r3, r3, #1
    a91c:	e50b300c 	str	r3, [fp, #-12]
    a920:	eaffffea 	b	a8d0 <_Z6strcatPcPKc+0x4c>
/home/schenkj/os2022/sp/sources/stdlib/src/stdstring.cpp:182

    dest[i+j] = '\0';
    a924:	e51b2008 	ldr	r2, [fp, #-8]
    a928:	e51b300c 	ldr	r3, [fp, #-12]
    a92c:	e0823003 	add	r3, r2, r3
    a930:	e1a02003 	mov	r2, r3
    a934:	e51b3010 	ldr	r3, [fp, #-16]
    a938:	e0833002 	add	r3, r3, r2
    a93c:	e3a02000 	mov	r2, #0
    a940:	e5c32000 	strb	r2, [r3]
/home/schenkj/os2022/sp/sources/stdlib/src/stdstring.cpp:184
	
    return dest;
    a944:	e51b3010 	ldr	r3, [fp, #-16]
/home/schenkj/os2022/sp/sources/stdlib/src/stdstring.cpp:185
}
    a948:	e1a00003 	mov	r0, r3
    a94c:	e28bd000 	add	sp, fp, #0
    a950:	e49db004 	pop	{fp}		; (ldr fp, [sp], #4)
    a954:	e12fff1e 	bx	lr

0000a958 <_Z7strncmpPKcS0_i>:
_Z7strncmpPKcS0_i():
/home/schenkj/os2022/sp/sources/stdlib/src/stdstring.cpp:188

int strncmp(const char *s1, const char *s2, int num)
{
    a958:	e52db004 	push	{fp}		; (str fp, [sp, #-4]!)
    a95c:	e28db000 	add	fp, sp, #0
    a960:	e24dd01c 	sub	sp, sp, #28
    a964:	e50b0010 	str	r0, [fp, #-16]
    a968:	e50b1014 	str	r1, [fp, #-20]	; 0xffffffec
    a96c:	e50b2018 	str	r2, [fp, #-24]	; 0xffffffe8
/home/schenkj/os2022/sp/sources/stdlib/src/stdstring.cpp:190
	unsigned char u1, u2;
  	while (num-- > 0)
    a970:	e51b3018 	ldr	r3, [fp, #-24]	; 0xffffffe8
    a974:	e2432001 	sub	r2, r3, #1
    a978:	e50b2018 	str	r2, [fp, #-24]	; 0xffffffe8
    a97c:	e3530000 	cmp	r3, #0
    a980:	c3a03001 	movgt	r3, #1
    a984:	d3a03000 	movle	r3, #0
    a988:	e6ef3073 	uxtb	r3, r3
    a98c:	e3530000 	cmp	r3, #0
    a990:	0a000016 	beq	a9f0 <_Z7strncmpPKcS0_i+0x98>
/home/schenkj/os2022/sp/sources/stdlib/src/stdstring.cpp:192
    {
      	u1 = (unsigned char) *s1++;
    a994:	e51b3010 	ldr	r3, [fp, #-16]
    a998:	e2832001 	add	r2, r3, #1
    a99c:	e50b2010 	str	r2, [fp, #-16]
    a9a0:	e5d33000 	ldrb	r3, [r3]
    a9a4:	e54b3005 	strb	r3, [fp, #-5]
/home/schenkj/os2022/sp/sources/stdlib/src/stdstring.cpp:193
     	u2 = (unsigned char) *s2++;
    a9a8:	e51b3014 	ldr	r3, [fp, #-20]	; 0xffffffec
    a9ac:	e2832001 	add	r2, r3, #1
    a9b0:	e50b2014 	str	r2, [fp, #-20]	; 0xffffffec
    a9b4:	e5d33000 	ldrb	r3, [r3]
    a9b8:	e54b3006 	strb	r3, [fp, #-6]
/home/schenkj/os2022/sp/sources/stdlib/src/stdstring.cpp:194
      	if (u1 != u2)
    a9bc:	e55b2005 	ldrb	r2, [fp, #-5]
    a9c0:	e55b3006 	ldrb	r3, [fp, #-6]
    a9c4:	e1520003 	cmp	r2, r3
    a9c8:	0a000003 	beq	a9dc <_Z7strncmpPKcS0_i+0x84>
/home/schenkj/os2022/sp/sources/stdlib/src/stdstring.cpp:195
        	return u1 - u2;
    a9cc:	e55b2005 	ldrb	r2, [fp, #-5]
    a9d0:	e55b3006 	ldrb	r3, [fp, #-6]
    a9d4:	e0423003 	sub	r3, r2, r3
    a9d8:	ea000005 	b	a9f4 <_Z7strncmpPKcS0_i+0x9c>
/home/schenkj/os2022/sp/sources/stdlib/src/stdstring.cpp:196
      	if (u1 == '\0')
    a9dc:	e55b3005 	ldrb	r3, [fp, #-5]
    a9e0:	e3530000 	cmp	r3, #0
    a9e4:	1affffe1 	bne	a970 <_Z7strncmpPKcS0_i+0x18>
/home/schenkj/os2022/sp/sources/stdlib/src/stdstring.cpp:197
        	return 0;
    a9e8:	e3a03000 	mov	r3, #0
    a9ec:	ea000000 	b	a9f4 <_Z7strncmpPKcS0_i+0x9c>
/home/schenkj/os2022/sp/sources/stdlib/src/stdstring.cpp:200
    }

  	return 0;
    a9f0:	e3a03000 	mov	r3, #0
/home/schenkj/os2022/sp/sources/stdlib/src/stdstring.cpp:201
}
    a9f4:	e1a00003 	mov	r0, r3
    a9f8:	e28bd000 	add	sp, fp, #0
    a9fc:	e49db004 	pop	{fp}		; (ldr fp, [sp], #4)
    aa00:	e12fff1e 	bx	lr

0000aa04 <_Z6strlenPKc>:
_Z6strlenPKc():
/home/schenkj/os2022/sp/sources/stdlib/src/stdstring.cpp:204

int strlen(const char* s)
{
    aa04:	e52db004 	push	{fp}		; (str fp, [sp, #-4]!)
    aa08:	e28db000 	add	fp, sp, #0
    aa0c:	e24dd014 	sub	sp, sp, #20
    aa10:	e50b0010 	str	r0, [fp, #-16]
/home/schenkj/os2022/sp/sources/stdlib/src/stdstring.cpp:205
	int i = 0;
    aa14:	e3a03000 	mov	r3, #0
    aa18:	e50b3008 	str	r3, [fp, #-8]
/home/schenkj/os2022/sp/sources/stdlib/src/stdstring.cpp:207

	while (s[i] != '\0')
    aa1c:	e51b3008 	ldr	r3, [fp, #-8]
    aa20:	e51b2010 	ldr	r2, [fp, #-16]
    aa24:	e0823003 	add	r3, r2, r3
    aa28:	e5d33000 	ldrb	r3, [r3]
    aa2c:	e3530000 	cmp	r3, #0
    aa30:	0a000003 	beq	aa44 <_Z6strlenPKc+0x40>
/home/schenkj/os2022/sp/sources/stdlib/src/stdstring.cpp:208
		i++;
    aa34:	e51b3008 	ldr	r3, [fp, #-8]
    aa38:	e2833001 	add	r3, r3, #1
    aa3c:	e50b3008 	str	r3, [fp, #-8]
/home/schenkj/os2022/sp/sources/stdlib/src/stdstring.cpp:207
	while (s[i] != '\0')
    aa40:	eafffff5 	b	aa1c <_Z6strlenPKc+0x18>
/home/schenkj/os2022/sp/sources/stdlib/src/stdstring.cpp:210

	return i;
    aa44:	e51b3008 	ldr	r3, [fp, #-8]
/home/schenkj/os2022/sp/sources/stdlib/src/stdstring.cpp:211
}
    aa48:	e1a00003 	mov	r0, r3
    aa4c:	e28bd000 	add	sp, fp, #0
    aa50:	e49db004 	pop	{fp}		; (ldr fp, [sp], #4)
    aa54:	e12fff1e 	bx	lr

0000aa58 <_Z5bzeroPvi>:
_Z5bzeroPvi():
/home/schenkj/os2022/sp/sources/stdlib/src/stdstring.cpp:214

void bzero(void* memory, int length)
{
    aa58:	e52db004 	push	{fp}		; (str fp, [sp, #-4]!)
    aa5c:	e28db000 	add	fp, sp, #0
    aa60:	e24dd014 	sub	sp, sp, #20
    aa64:	e50b0010 	str	r0, [fp, #-16]
    aa68:	e50b1014 	str	r1, [fp, #-20]	; 0xffffffec
/home/schenkj/os2022/sp/sources/stdlib/src/stdstring.cpp:215
	char* mem = reinterpret_cast<char*>(memory);
    aa6c:	e51b3010 	ldr	r3, [fp, #-16]
    aa70:	e50b300c 	str	r3, [fp, #-12]
/home/schenkj/os2022/sp/sources/stdlib/src/stdstring.cpp:217

	for (int i = 0; i < length; i++)
    aa74:	e3a03000 	mov	r3, #0
    aa78:	e50b3008 	str	r3, [fp, #-8]
/home/schenkj/os2022/sp/sources/stdlib/src/stdstring.cpp:217 (discriminator 3)
    aa7c:	e51b2008 	ldr	r2, [fp, #-8]
    aa80:	e51b3014 	ldr	r3, [fp, #-20]	; 0xffffffec
    aa84:	e1520003 	cmp	r2, r3
    aa88:	aa000008 	bge	aab0 <_Z5bzeroPvi+0x58>
/home/schenkj/os2022/sp/sources/stdlib/src/stdstring.cpp:218 (discriminator 2)
		mem[i] = 0;
    aa8c:	e51b3008 	ldr	r3, [fp, #-8]
    aa90:	e51b200c 	ldr	r2, [fp, #-12]
    aa94:	e0823003 	add	r3, r2, r3
    aa98:	e3a02000 	mov	r2, #0
    aa9c:	e5c32000 	strb	r2, [r3]
/home/schenkj/os2022/sp/sources/stdlib/src/stdstring.cpp:217 (discriminator 2)
	for (int i = 0; i < length; i++)
    aaa0:	e51b3008 	ldr	r3, [fp, #-8]
    aaa4:	e2833001 	add	r3, r3, #1
    aaa8:	e50b3008 	str	r3, [fp, #-8]
    aaac:	eafffff2 	b	aa7c <_Z5bzeroPvi+0x24>
/home/schenkj/os2022/sp/sources/stdlib/src/stdstring.cpp:219
}
    aab0:	e320f000 	nop	{0}
    aab4:	e28bd000 	add	sp, fp, #0
    aab8:	e49db004 	pop	{fp}		; (ldr fp, [sp], #4)
    aabc:	e12fff1e 	bx	lr

0000aac0 <_Z6memcpyPKvPvi>:
_Z6memcpyPKvPvi():
/home/schenkj/os2022/sp/sources/stdlib/src/stdstring.cpp:222

void memcpy(const void* src, void* dst, int num)
{
    aac0:	e52db004 	push	{fp}		; (str fp, [sp, #-4]!)
    aac4:	e28db000 	add	fp, sp, #0
    aac8:	e24dd024 	sub	sp, sp, #36	; 0x24
    aacc:	e50b0018 	str	r0, [fp, #-24]	; 0xffffffe8
    aad0:	e50b101c 	str	r1, [fp, #-28]	; 0xffffffe4
    aad4:	e50b2020 	str	r2, [fp, #-32]	; 0xffffffe0
/home/schenkj/os2022/sp/sources/stdlib/src/stdstring.cpp:223
	const char* memsrc = reinterpret_cast<const char*>(src);
    aad8:	e51b3018 	ldr	r3, [fp, #-24]	; 0xffffffe8
    aadc:	e50b300c 	str	r3, [fp, #-12]
/home/schenkj/os2022/sp/sources/stdlib/src/stdstring.cpp:224
	char* memdst = reinterpret_cast<char*>(dst);
    aae0:	e51b301c 	ldr	r3, [fp, #-28]	; 0xffffffe4
    aae4:	e50b3010 	str	r3, [fp, #-16]
/home/schenkj/os2022/sp/sources/stdlib/src/stdstring.cpp:226

	for (int i = 0; i < num; i++)
    aae8:	e3a03000 	mov	r3, #0
    aaec:	e50b3008 	str	r3, [fp, #-8]
/home/schenkj/os2022/sp/sources/stdlib/src/stdstring.cpp:226 (discriminator 3)
    aaf0:	e51b2008 	ldr	r2, [fp, #-8]
    aaf4:	e51b3020 	ldr	r3, [fp, #-32]	; 0xffffffe0
    aaf8:	e1520003 	cmp	r2, r3
    aafc:	aa00000b 	bge	ab30 <_Z6memcpyPKvPvi+0x70>
/home/schenkj/os2022/sp/sources/stdlib/src/stdstring.cpp:227 (discriminator 2)
		memdst[i] = memsrc[i];
    ab00:	e51b3008 	ldr	r3, [fp, #-8]
    ab04:	e51b200c 	ldr	r2, [fp, #-12]
    ab08:	e0822003 	add	r2, r2, r3
    ab0c:	e51b3008 	ldr	r3, [fp, #-8]
    ab10:	e51b1010 	ldr	r1, [fp, #-16]
    ab14:	e0813003 	add	r3, r1, r3
    ab18:	e5d22000 	ldrb	r2, [r2]
    ab1c:	e5c32000 	strb	r2, [r3]
/home/schenkj/os2022/sp/sources/stdlib/src/stdstring.cpp:226 (discriminator 2)
	for (int i = 0; i < num; i++)
    ab20:	e51b3008 	ldr	r3, [fp, #-8]
    ab24:	e2833001 	add	r3, r3, #1
    ab28:	e50b3008 	str	r3, [fp, #-8]
    ab2c:	eaffffef 	b	aaf0 <_Z6memcpyPKvPvi+0x30>
/home/schenkj/os2022/sp/sources/stdlib/src/stdstring.cpp:228
}
    ab30:	e320f000 	nop	{0}
    ab34:	e28bd000 	add	sp, fp, #0
    ab38:	e49db004 	pop	{fp}		; (ldr fp, [sp], #4)
    ab3c:	e12fff1e 	bx	lr

0000ab40 <_ZN10Read_UtilsC1Ev>:
_ZN10Read_UtilsC2Ev():
/home/schenkj/os2022/sp/sources/stdutils/src/readUtils.cpp:5
#include <readUtils.h>
#include <stdfile.h>
#include <stdstring.h>

Read_Utils::Read_Utils() {
    ab40:	e92d4800 	push	{fp, lr}
    ab44:	e28db004 	add	fp, sp, #4
    ab48:	e24dd008 	sub	sp, sp, #8
    ab4c:	e50b0008 	str	r0, [fp, #-8]
    ab50:	e51b3008 	ldr	r3, [fp, #-8]
    ab54:	e1a00003 	mov	r0, r3
    ab58:	eb000053 	bl	acac <_ZN15Circular_BufferC1Ev>
/home/schenkj/os2022/sp/sources/stdutils/src/readUtils.cpp:7
    // Prazdny konstruktor
};
    ab5c:	e51b3008 	ldr	r3, [fp, #-8]
    ab60:	e1a00003 	mov	r0, r3
    ab64:	e24bd004 	sub	sp, fp, #4
    ab68:	e8bd8800 	pop	{fp, pc}

0000ab6c <_ZN10Read_Utils8readLineEPcjb>:
_ZN10Read_Utils8readLineEPcjb():
/home/schenkj/os2022/sp/sources/stdutils/src/readUtils.cpp:9

uint32_t Read_Utils::readLine(char * returnBuffer, uint32_t file, bool blocking) {
    ab6c:	e92d4800 	push	{fp, lr}
    ab70:	e28db004 	add	fp, sp, #4
    ab74:	e24dd0a0 	sub	sp, sp, #160	; 0xa0
    ab78:	e50b0098 	str	r0, [fp, #-152]	; 0xffffff68
    ab7c:	e50b109c 	str	r1, [fp, #-156]	; 0xffffff64
    ab80:	e50b20a0 	str	r2, [fp, #-160]	; 0xffffff60
    ab84:	e54b30a1 	strb	r3, [fp, #-161]	; 0xffffff5f
/home/schenkj/os2022/sp/sources/stdutils/src/readUtils.cpp:11
    char readBuffer[128];
	bzero(readBuffer, 128);
    ab88:	e24b3090 	sub	r3, fp, #144	; 0x90
    ab8c:	e3a01080 	mov	r1, #128	; 0x80
    ab90:	e1a00003 	mov	r0, r3
    ab94:	ebffffaf 	bl	aa58 <_Z5bzeroPvi>
/home/schenkj/os2022/sp/sources/stdutils/src/readUtils.cpp:12
	uint32_t readChars = 0;
    ab98:	e3a03000 	mov	r3, #0
    ab9c:	e50b3008 	str	r3, [fp, #-8]
/home/schenkj/os2022/sp/sources/stdutils/src/readUtils.cpp:16

    //Read from UART if data are available.
	do {
		if (blocking == true) {	//If we want to block the process, we just wait until we receive something from  UART
    aba0:	e55b30a1 	ldrb	r3, [fp, #-161]	; 0xffffff5f
    aba4:	e3530001 	cmp	r3, #1
    aba8:	1a000003 	bne	abbc <_ZN10Read_Utils8readLineEPcjb+0x50>
/home/schenkj/os2022/sp/sources/stdutils/src/readUtils.cpp:17
			wait(file, 0x1000, 0x2000);
    abac:	e3a02a02 	mov	r2, #8192	; 0x2000
    abb0:	e3a01a01 	mov	r1, #4096	; 0x1000
    abb4:	e51b00a0 	ldr	r0, [fp, #-160]	; 0xffffff60
    abb8:	ebfffc6e 	bl	9d78 <_Z4waitjjj>
/home/schenkj/os2022/sp/sources/stdutils/src/readUtils.cpp:22
		}

		/*TODO: Vyhodit blocking na UARTu, sere na to pes :) */

		uint32_t len = read(file, readBuffer, 128);
    abbc:	e24b3090 	sub	r3, fp, #144	; 0x90
    abc0:	e3a02080 	mov	r2, #128	; 0x80
    abc4:	e1a01003 	mov	r1, r3
    abc8:	e51b00a0 	ldr	r0, [fp, #-160]	; 0xffffff60
    abcc:	ebfffc11 	bl	9c18 <_Z4readjPcj>
    abd0:	e50b0010 	str	r0, [fp, #-16]
/home/schenkj/os2022/sp/sources/stdutils/src/readUtils.cpp:23
		if (len != 0) {
    abd4:	e51b3010 	ldr	r3, [fp, #-16]
    abd8:	e3530000 	cmp	r3, #0
    abdc:	0a000027 	beq	ac80 <_ZN10Read_Utils8readLineEPcjb+0x114>
/home/schenkj/os2022/sp/sources/stdutils/src/readUtils.cpp:30
			//Write into it's own circular buffer holding previous values.
			//This is used for example if user pastes two lines, we don't want to scrap the result.
			//Other scenario might be that user might enter for example only two characters without pressing \n - We still 
			//Want to save the results and return them on next readLine call.
			
			cb.write(readBuffer, len);
    abe0:	e51b3098 	ldr	r3, [fp, #-152]	; 0xffffff68
    abe4:	e24b1090 	sub	r1, fp, #144	; 0x90
    abe8:	e51b2010 	ldr	r2, [fp, #-16]
    abec:	e1a00003 	mov	r0, r3
    abf0:	eb000085 	bl	ae0c <_ZN15Circular_Buffer5writeEPcj>
/home/schenkj/os2022/sp/sources/stdutils/src/readUtils.cpp:31
			readChars = cb.readUntil('\r', returnBuffer);
    abf4:	e51b3098 	ldr	r3, [fp, #-152]	; 0xffffff68
    abf8:	e51b209c 	ldr	r2, [fp, #-156]	; 0xffffff64
    abfc:	e3a0100d 	mov	r1, #13
    ac00:	e1a00003 	mov	r0, r3
    ac04:	eb0000af 	bl	aec8 <_ZN15Circular_Buffer9readUntilEcPc>
    ac08:	e50b0008 	str	r0, [fp, #-8]
/home/schenkj/os2022/sp/sources/stdutils/src/readUtils.cpp:34

			//Remove newLine and carriage return characters from the end of the string.
			for (int i = readChars - 1; i >= 0; i--) {
    ac0c:	e51b3008 	ldr	r3, [fp, #-8]
    ac10:	e2433001 	sub	r3, r3, #1
    ac14:	e50b300c 	str	r3, [fp, #-12]
/home/schenkj/os2022/sp/sources/stdutils/src/readUtils.cpp:34 (discriminator 1)
    ac18:	e51b300c 	ldr	r3, [fp, #-12]
    ac1c:	e3530000 	cmp	r3, #0
    ac20:	ba000016 	blt	ac80 <_ZN10Read_Utils8readLineEPcjb+0x114>
/home/schenkj/os2022/sp/sources/stdutils/src/readUtils.cpp:35
				if (returnBuffer[i] == '\r' || returnBuffer[i] == '\n') {
    ac24:	e51b300c 	ldr	r3, [fp, #-12]
    ac28:	e51b209c 	ldr	r2, [fp, #-156]	; 0xffffff64
    ac2c:	e0823003 	add	r3, r2, r3
    ac30:	e5d33000 	ldrb	r3, [r3]
    ac34:	e353000d 	cmp	r3, #13
    ac38:	0a000005 	beq	ac54 <_ZN10Read_Utils8readLineEPcjb+0xe8>
/home/schenkj/os2022/sp/sources/stdutils/src/readUtils.cpp:35 (discriminator 2)
    ac3c:	e51b300c 	ldr	r3, [fp, #-12]
    ac40:	e51b209c 	ldr	r2, [fp, #-156]	; 0xffffff64
    ac44:	e0823003 	add	r3, r2, r3
    ac48:	e5d33000 	ldrb	r3, [r3]
    ac4c:	e353000a 	cmp	r3, #10
    ac50:	1a000009 	bne	ac7c <_ZN10Read_Utils8readLineEPcjb+0x110>
/home/schenkj/os2022/sp/sources/stdutils/src/readUtils.cpp:36 (discriminator 3)
					returnBuffer[i] = '\0';
    ac54:	e51b300c 	ldr	r3, [fp, #-12]
    ac58:	e51b209c 	ldr	r2, [fp, #-156]	; 0xffffff64
    ac5c:	e0823003 	add	r3, r2, r3
    ac60:	e3a02000 	mov	r2, #0
    ac64:	e5c32000 	strb	r2, [r3]
/home/schenkj/os2022/sp/sources/stdutils/src/readUtils.cpp:37 (discriminator 3)
					continue; //Replace and continue to another character 
    ac68:	e320f000 	nop	{0}
/home/schenkj/os2022/sp/sources/stdutils/src/readUtils.cpp:34 (discriminator 3)
			for (int i = readChars - 1; i >= 0; i--) {
    ac6c:	e51b300c 	ldr	r3, [fp, #-12]
    ac70:	e2433001 	sub	r3, r3, #1
    ac74:	e50b300c 	str	r3, [fp, #-12]
    ac78:	eaffffe6 	b	ac18 <_ZN10Read_Utils8readLineEPcjb+0xac>
/home/schenkj/os2022/sp/sources/stdutils/src/readUtils.cpp:40
				}

				break; //There was no newline, we suspect that there is alphanumeric characters and no new line char will be present, so we can stop the search.
    ac7c:	e320f000 	nop	{0}
/home/schenkj/os2022/sp/sources/stdutils/src/readUtils.cpp:43
			}
		}
	} while (readChars == 0 && blocking == true);
    ac80:	e51b3008 	ldr	r3, [fp, #-8]
    ac84:	e3530000 	cmp	r3, #0
    ac88:	1a000003 	bne	ac9c <_ZN10Read_Utils8readLineEPcjb+0x130>
/home/schenkj/os2022/sp/sources/stdutils/src/readUtils.cpp:43 (discriminator 1)
    ac8c:	e55b30a1 	ldrb	r3, [fp, #-161]	; 0xffffff5f
    ac90:	e3530001 	cmp	r3, #1
    ac94:	1a000000 	bne	ac9c <_ZN10Read_Utils8readLineEPcjb+0x130>
/home/schenkj/os2022/sp/sources/stdutils/src/readUtils.cpp:15
	do {
    ac98:	eaffffc0 	b	aba0 <_ZN10Read_Utils8readLineEPcjb+0x34>
/home/schenkj/os2022/sp/sources/stdutils/src/readUtils.cpp:45
	
    return readChars;
    ac9c:	e51b3008 	ldr	r3, [fp, #-8]
/home/schenkj/os2022/sp/sources/stdutils/src/readUtils.cpp:46
}
    aca0:	e1a00003 	mov	r0, r3
    aca4:	e24bd004 	sub	sp, fp, #4
    aca8:	e8bd8800 	pop	{fp, pc}

0000acac <_ZN15Circular_BufferC1Ev>:
_ZN15Circular_BufferC2Ev():
/home/schenkj/os2022/sp/sources/stdutils/src/circularBuffer.cpp:4
#include <circularBuffer.h>
#include <stdstring.h>

Circular_Buffer::Circular_Buffer() {
    acac:	e92d4800 	push	{fp, lr}
    acb0:	e28db004 	add	fp, sp, #4
    acb4:	e24dd008 	sub	sp, sp, #8
    acb8:	e50b0008 	str	r0, [fp, #-8]
    acbc:	e51b3008 	ldr	r3, [fp, #-8]
    acc0:	e3a02000 	mov	r2, #0
    acc4:	e5832080 	str	r2, [r3, #128]	; 0x80
    acc8:	e51b3008 	ldr	r3, [fp, #-8]
    accc:	e3a02000 	mov	r2, #0
    acd0:	e5832084 	str	r2, [r3, #132]	; 0x84
/home/schenkj/os2022/sp/sources/stdutils/src/circularBuffer.cpp:5
    bzero(buffer, BUFFER_SIZE);
    acd4:	e51b3008 	ldr	r3, [fp, #-8]
    acd8:	e3a01080 	mov	r1, #128	; 0x80
    acdc:	e1a00003 	mov	r0, r3
    ace0:	ebffff5c 	bl	aa58 <_Z5bzeroPvi>
/home/schenkj/os2022/sp/sources/stdutils/src/circularBuffer.cpp:6
};
    ace4:	e51b3008 	ldr	r3, [fp, #-8]
    ace8:	e1a00003 	mov	r0, r3
    acec:	e24bd004 	sub	sp, fp, #4
    acf0:	e8bd8800 	pop	{fp, pc}

0000acf4 <_ZN15Circular_Buffer4readEPc>:
_ZN15Circular_Buffer4readEPc():
/home/schenkj/os2022/sp/sources/stdutils/src/circularBuffer.cpp:11

/* TODO: Vyresit tady nejak try_spinlock_lock. Mozna predat spinlock z UARTu, ktery muze UART driver zavrit externe nez spusti read. */

//read all and return len
uint32_t Circular_Buffer::read(char * ret) {
    acf4:	e92d4800 	push	{fp, lr}
    acf8:	e28db004 	add	fp, sp, #4
    acfc:	e24dd008 	sub	sp, sp, #8
    ad00:	e50b0008 	str	r0, [fp, #-8]
    ad04:	e50b100c 	str	r1, [fp, #-12]
/home/schenkj/os2022/sp/sources/stdutils/src/circularBuffer.cpp:12
    return read(ret, write_index - read_index); //read all between start and stop
    ad08:	e51b3008 	ldr	r3, [fp, #-8]
    ad0c:	e5932084 	ldr	r2, [r3, #132]	; 0x84
    ad10:	e51b3008 	ldr	r3, [fp, #-8]
    ad14:	e5933080 	ldr	r3, [r3, #128]	; 0x80
    ad18:	e0423003 	sub	r3, r2, r3
    ad1c:	e1a02003 	mov	r2, r3
    ad20:	e51b100c 	ldr	r1, [fp, #-12]
    ad24:	e51b0008 	ldr	r0, [fp, #-8]
    ad28:	eb000003 	bl	ad3c <_ZN15Circular_Buffer4readEPcj>
    ad2c:	e1a03000 	mov	r3, r0
/home/schenkj/os2022/sp/sources/stdutils/src/circularBuffer.cpp:13
}
    ad30:	e1a00003 	mov	r0, r3
    ad34:	e24bd004 	sub	sp, fp, #4
    ad38:	e8bd8800 	pop	{fp, pc}

0000ad3c <_ZN15Circular_Buffer4readEPcj>:
_ZN15Circular_Buffer4readEPcj():
/home/schenkj/os2022/sp/sources/stdutils/src/circularBuffer.cpp:16

//try to read x char and return number of actually read chars
uint32_t Circular_Buffer::read(char * ret, uint32_t len) {
    ad3c:	e52db004 	push	{fp}		; (str fp, [sp, #-4]!)
    ad40:	e28db000 	add	fp, sp, #0
    ad44:	e24dd024 	sub	sp, sp, #36	; 0x24
    ad48:	e50b0018 	str	r0, [fp, #-24]	; 0xffffffe8
    ad4c:	e50b101c 	str	r1, [fp, #-28]	; 0xffffffe4
    ad50:	e50b2020 	str	r2, [fp, #-32]	; 0xffffffe0
/home/schenkj/os2022/sp/sources/stdutils/src/circularBuffer.cpp:17
    int readChars = 0;
    ad54:	e3a03000 	mov	r3, #0
    ad58:	e50b3008 	str	r3, [fp, #-8]
/home/schenkj/os2022/sp/sources/stdutils/src/circularBuffer.cpp:18
    uint32_t maxLen = write_index - read_index;
    ad5c:	e51b3018 	ldr	r3, [fp, #-24]	; 0xffffffe8
    ad60:	e5932084 	ldr	r2, [r3, #132]	; 0x84
    ad64:	e51b3018 	ldr	r3, [fp, #-24]	; 0xffffffe8
    ad68:	e5933080 	ldr	r3, [r3, #128]	; 0x80
    ad6c:	e0423003 	sub	r3, r2, r3
    ad70:	e50b3010 	str	r3, [fp, #-16]
/home/schenkj/os2022/sp/sources/stdutils/src/circularBuffer.cpp:20

    if (maxLen < len) {
    ad74:	e51b2010 	ldr	r2, [fp, #-16]
    ad78:	e51b3020 	ldr	r3, [fp, #-32]	; 0xffffffe0
    ad7c:	e1520003 	cmp	r2, r3
    ad80:	2a000001 	bcs	ad8c <_ZN15Circular_Buffer4readEPcj+0x50>
/home/schenkj/os2022/sp/sources/stdutils/src/circularBuffer.cpp:21
        len = maxLen;
    ad84:	e51b3010 	ldr	r3, [fp, #-16]
    ad88:	e50b3020 	str	r3, [fp, #-32]	; 0xffffffe0
/home/schenkj/os2022/sp/sources/stdutils/src/circularBuffer.cpp:24
    }

    for (int i = 0; i < len; i++) {
    ad8c:	e3a03000 	mov	r3, #0
    ad90:	e50b300c 	str	r3, [fp, #-12]
/home/schenkj/os2022/sp/sources/stdutils/src/circularBuffer.cpp:24 (discriminator 3)
    ad94:	e51b300c 	ldr	r3, [fp, #-12]
    ad98:	e51b2020 	ldr	r2, [fp, #-32]	; 0xffffffe0
    ad9c:	e1520003 	cmp	r2, r3
    ada0:	9a000014 	bls	adf8 <_ZN15Circular_Buffer4readEPcj+0xbc>
/home/schenkj/os2022/sp/sources/stdutils/src/circularBuffer.cpp:25 (discriminator 2)
        ret[readChars] = buffer[read_index % BUFFER_SIZE];
    ada4:	e51b3018 	ldr	r3, [fp, #-24]	; 0xffffffe8
    ada8:	e5933080 	ldr	r3, [r3, #128]	; 0x80
    adac:	e203207f 	and	r2, r3, #127	; 0x7f
    adb0:	e51b3008 	ldr	r3, [fp, #-8]
    adb4:	e51b101c 	ldr	r1, [fp, #-28]	; 0xffffffe4
    adb8:	e0813003 	add	r3, r1, r3
    adbc:	e51b1018 	ldr	r1, [fp, #-24]	; 0xffffffe8
    adc0:	e7d12002 	ldrb	r2, [r1, r2]
    adc4:	e5c32000 	strb	r2, [r3]
/home/schenkj/os2022/sp/sources/stdutils/src/circularBuffer.cpp:27 (discriminator 2)

        readChars++; //Increment counter to return
    adc8:	e51b3008 	ldr	r3, [fp, #-8]
    adcc:	e2833001 	add	r3, r3, #1
    add0:	e50b3008 	str	r3, [fp, #-8]
/home/schenkj/os2022/sp/sources/stdutils/src/circularBuffer.cpp:28 (discriminator 2)
        read_index++; //Increment read_index
    add4:	e51b3018 	ldr	r3, [fp, #-24]	; 0xffffffe8
    add8:	e5933080 	ldr	r3, [r3, #128]	; 0x80
    addc:	e2832001 	add	r2, r3, #1
    ade0:	e51b3018 	ldr	r3, [fp, #-24]	; 0xffffffe8
    ade4:	e5832080 	str	r2, [r3, #128]	; 0x80
/home/schenkj/os2022/sp/sources/stdutils/src/circularBuffer.cpp:24 (discriminator 2)
    for (int i = 0; i < len; i++) {
    ade8:	e51b300c 	ldr	r3, [fp, #-12]
    adec:	e2833001 	add	r3, r3, #1
    adf0:	e50b300c 	str	r3, [fp, #-12]
    adf4:	eaffffe6 	b	ad94 <_ZN15Circular_Buffer4readEPcj+0x58>
/home/schenkj/os2022/sp/sources/stdutils/src/circularBuffer.cpp:31
    }

    return readChars;
    adf8:	e51b3008 	ldr	r3, [fp, #-8]
/home/schenkj/os2022/sp/sources/stdutils/src/circularBuffer.cpp:32
}
    adfc:	e1a00003 	mov	r0, r3
    ae00:	e28bd000 	add	sp, fp, #0
    ae04:	e49db004 	pop	{fp}		; (ldr fp, [sp], #4)
    ae08:	e12fff1e 	bx	lr

0000ae0c <_ZN15Circular_Buffer5writeEPcj>:
_ZN15Circular_Buffer5writeEPcj():
/home/schenkj/os2022/sp/sources/stdutils/src/circularBuffer.cpp:35

//more chars write
void Circular_Buffer::write(char* input, uint32_t len) {
    ae0c:	e92d4800 	push	{fp, lr}
    ae10:	e28db004 	add	fp, sp, #4
    ae14:	e24dd018 	sub	sp, sp, #24
    ae18:	e50b0010 	str	r0, [fp, #-16]
    ae1c:	e50b1014 	str	r1, [fp, #-20]	; 0xffffffec
    ae20:	e50b2018 	str	r2, [fp, #-24]	; 0xffffffe8
/home/schenkj/os2022/sp/sources/stdutils/src/circularBuffer.cpp:36
    for (int i = 0; i < len; i++) {
    ae24:	e3a03000 	mov	r3, #0
    ae28:	e50b3008 	str	r3, [fp, #-8]
/home/schenkj/os2022/sp/sources/stdutils/src/circularBuffer.cpp:36 (discriminator 3)
    ae2c:	e51b3008 	ldr	r3, [fp, #-8]
    ae30:	e51b2018 	ldr	r2, [fp, #-24]	; 0xffffffe8
    ae34:	e1520003 	cmp	r2, r3
    ae38:	9a00000a 	bls	ae68 <_ZN15Circular_Buffer5writeEPcj+0x5c>
/home/schenkj/os2022/sp/sources/stdutils/src/circularBuffer.cpp:37 (discriminator 2)
        write(input[i]);
    ae3c:	e51b3008 	ldr	r3, [fp, #-8]
    ae40:	e51b2014 	ldr	r2, [fp, #-20]	; 0xffffffec
    ae44:	e0823003 	add	r3, r2, r3
    ae48:	e5d33000 	ldrb	r3, [r3]
    ae4c:	e1a01003 	mov	r1, r3
    ae50:	e51b0010 	ldr	r0, [fp, #-16]
    ae54:	eb000006 	bl	ae74 <_ZN15Circular_Buffer5writeEc>
/home/schenkj/os2022/sp/sources/stdutils/src/circularBuffer.cpp:36 (discriminator 2)
    for (int i = 0; i < len; i++) {
    ae58:	e51b3008 	ldr	r3, [fp, #-8]
    ae5c:	e2833001 	add	r3, r3, #1
    ae60:	e50b3008 	str	r3, [fp, #-8]
    ae64:	eafffff0 	b	ae2c <_ZN15Circular_Buffer5writeEPcj+0x20>
/home/schenkj/os2022/sp/sources/stdutils/src/circularBuffer.cpp:39
    }
}
    ae68:	e320f000 	nop	{0}
    ae6c:	e24bd004 	sub	sp, fp, #4
    ae70:	e8bd8800 	pop	{fp, pc}

0000ae74 <_ZN15Circular_Buffer5writeEc>:
_ZN15Circular_Buffer5writeEc():
/home/schenkj/os2022/sp/sources/stdutils/src/circularBuffer.cpp:42

// one char write
void Circular_Buffer::write(char input) {
    ae74:	e52db004 	push	{fp}		; (str fp, [sp, #-4]!)
    ae78:	e28db000 	add	fp, sp, #0
    ae7c:	e24dd00c 	sub	sp, sp, #12
    ae80:	e50b0008 	str	r0, [fp, #-8]
    ae84:	e1a03001 	mov	r3, r1
    ae88:	e54b3009 	strb	r3, [fp, #-9]
/home/schenkj/os2022/sp/sources/stdutils/src/circularBuffer.cpp:43
    buffer[write_index % BUFFER_SIZE] = input;
    ae8c:	e51b3008 	ldr	r3, [fp, #-8]
    ae90:	e5933084 	ldr	r3, [r3, #132]	; 0x84
    ae94:	e203307f 	and	r3, r3, #127	; 0x7f
    ae98:	e51b2008 	ldr	r2, [fp, #-8]
    ae9c:	e55b1009 	ldrb	r1, [fp, #-9]
    aea0:	e7c21003 	strb	r1, [r2, r3]
/home/schenkj/os2022/sp/sources/stdutils/src/circularBuffer.cpp:44
    write_index++;
    aea4:	e51b3008 	ldr	r3, [fp, #-8]
    aea8:	e5933084 	ldr	r3, [r3, #132]	; 0x84
    aeac:	e2832001 	add	r2, r3, #1
    aeb0:	e51b3008 	ldr	r3, [fp, #-8]
    aeb4:	e5832084 	str	r2, [r3, #132]	; 0x84
/home/schenkj/os2022/sp/sources/stdutils/src/circularBuffer.cpp:45
}
    aeb8:	e320f000 	nop	{0}
    aebc:	e28bd000 	add	sp, fp, #0
    aec0:	e49db004 	pop	{fp}		; (ldr fp, [sp], #4)
    aec4:	e12fff1e 	bx	lr

0000aec8 <_ZN15Circular_Buffer9readUntilEcPc>:
_ZN15Circular_Buffer9readUntilEcPc():
/home/schenkj/os2022/sp/sources/stdutils/src/circularBuffer.cpp:49


//read till you find stop char, or return 0 and data back to buffer
uint32_t Circular_Buffer::readUntil(char stop, char* ret) {
    aec8:	e92d4800 	push	{fp, lr}
    aecc:	e28db004 	add	fp, sp, #4
    aed0:	e24dd018 	sub	sp, sp, #24
    aed4:	e50b0010 	str	r0, [fp, #-16]
    aed8:	e1a03001 	mov	r3, r1
    aedc:	e50b2018 	str	r2, [fp, #-24]	; 0xffffffe8
    aee0:	e54b3011 	strb	r3, [fp, #-17]	; 0xffffffef
/home/schenkj/os2022/sp/sources/stdutils/src/circularBuffer.cpp:52
    int readTempIndex;

    for (readTempIndex = read_index; readTempIndex < write_index; readTempIndex++) {
    aee4:	e51b3010 	ldr	r3, [fp, #-16]
    aee8:	e5933080 	ldr	r3, [r3, #128]	; 0x80
    aeec:	e50b3008 	str	r3, [fp, #-8]
/home/schenkj/os2022/sp/sources/stdutils/src/circularBuffer.cpp:52 (discriminator 1)
    aef0:	e51b3010 	ldr	r3, [fp, #-16]
    aef4:	e5932084 	ldr	r2, [r3, #132]	; 0x84
    aef8:	e51b3008 	ldr	r3, [fp, #-8]
    aefc:	e1520003 	cmp	r2, r3
    af00:	9a000016 	bls	af60 <_ZN15Circular_Buffer9readUntilEcPc+0x98>
/home/schenkj/os2022/sp/sources/stdutils/src/circularBuffer.cpp:53
        if (buffer[readTempIndex % BUFFER_SIZE] == stop) {
    af04:	e51b3008 	ldr	r3, [fp, #-8]
    af08:	e2732000 	rsbs	r2, r3, #0
    af0c:	e203307f 	and	r3, r3, #127	; 0x7f
    af10:	e202207f 	and	r2, r2, #127	; 0x7f
    af14:	52623000 	rsbpl	r3, r2, #0
    af18:	e51b2010 	ldr	r2, [fp, #-16]
    af1c:	e7d23003 	ldrb	r3, [r2, r3]
    af20:	e55b2011 	ldrb	r2, [fp, #-17]	; 0xffffffef
    af24:	e1520003 	cmp	r2, r3
    af28:	0a00000b 	beq	af5c <_ZN15Circular_Buffer9readUntilEcPc+0x94>
/home/schenkj/os2022/sp/sources/stdutils/src/circularBuffer.cpp:58
            break;
        }

        //return 0 bcs I am at the end and there was no stop char
        if (readTempIndex == write_index - 1) {
    af2c:	e51b3010 	ldr	r3, [fp, #-16]
    af30:	e5933084 	ldr	r3, [r3, #132]	; 0x84
    af34:	e2432001 	sub	r2, r3, #1
    af38:	e51b3008 	ldr	r3, [fp, #-8]
    af3c:	e1520003 	cmp	r2, r3
    af40:	1a000001 	bne	af4c <_ZN15Circular_Buffer9readUntilEcPc+0x84>
/home/schenkj/os2022/sp/sources/stdutils/src/circularBuffer.cpp:59
            return 0;
    af44:	e3a03000 	mov	r3, #0
    af48:	ea00000f 	b	af8c <_ZN15Circular_Buffer9readUntilEcPc+0xc4>
/home/schenkj/os2022/sp/sources/stdutils/src/circularBuffer.cpp:52 (discriminator 2)
    for (readTempIndex = read_index; readTempIndex < write_index; readTempIndex++) {
    af4c:	e51b3008 	ldr	r3, [fp, #-8]
    af50:	e2833001 	add	r3, r3, #1
    af54:	e50b3008 	str	r3, [fp, #-8]
    af58:	eaffffe4 	b	aef0 <_ZN15Circular_Buffer9readUntilEcPc+0x28>
/home/schenkj/os2022/sp/sources/stdutils/src/circularBuffer.cpp:54
            break;
    af5c:	e320f000 	nop	{0}
/home/schenkj/os2022/sp/sources/stdutils/src/circularBuffer.cpp:64
        }
    }

    //readTempIndex keeps position
    return read(ret, readTempIndex - read_index + 1); //Read one more char - if we have asd\n, then \n is readTempIndex 3 - read_index 0 = 3 - but we want 4 letters
    af60:	e51b2008 	ldr	r2, [fp, #-8]
    af64:	e51b3010 	ldr	r3, [fp, #-16]
    af68:	e5933080 	ldr	r3, [r3, #128]	; 0x80
    af6c:	e0423003 	sub	r3, r2, r3
    af70:	e2833001 	add	r3, r3, #1
    af74:	e1a02003 	mov	r2, r3
    af78:	e51b1018 	ldr	r1, [fp, #-24]	; 0xffffffe8
    af7c:	e51b0010 	ldr	r0, [fp, #-16]
    af80:	ebffff6d 	bl	ad3c <_ZN15Circular_Buffer4readEPcj>
    af84:	e1a03000 	mov	r3, r0
    af88:	e320f000 	nop	{0}
/home/schenkj/os2022/sp/sources/stdutils/src/circularBuffer.cpp:65
}
    af8c:	e1a00003 	mov	r0, r3
    af90:	e24bd004 	sub	sp, fp, #4
    af94:	e8bd8800 	pop	{fp, pc}

0000af98 <__udivsi3>:
__udivsi3():
/build/gcc-arm-none-eabi-Gl9kT9/gcc-arm-none-eabi-9-2019-q4/build/arm-none-eabi/arm/v5te/hard/libgcc/../../../../../../libgcc/config/arm/lib1funcs.S:1099
    af98:	e2512001 	subs	r2, r1, #1
/build/gcc-arm-none-eabi-Gl9kT9/gcc-arm-none-eabi-9-2019-q4/build/arm-none-eabi/arm/v5te/hard/libgcc/../../../../../../libgcc/config/arm/lib1funcs.S:1101
    af9c:	012fff1e 	bxeq	lr
/build/gcc-arm-none-eabi-Gl9kT9/gcc-arm-none-eabi-9-2019-q4/build/arm-none-eabi/arm/v5te/hard/libgcc/../../../../../../libgcc/config/arm/lib1funcs.S:1102
    afa0:	3a000074 	bcc	b178 <__udivsi3+0x1e0>
/build/gcc-arm-none-eabi-Gl9kT9/gcc-arm-none-eabi-9-2019-q4/build/arm-none-eabi/arm/v5te/hard/libgcc/../../../../../../libgcc/config/arm/lib1funcs.S:1103
    afa4:	e1500001 	cmp	r0, r1
/build/gcc-arm-none-eabi-Gl9kT9/gcc-arm-none-eabi-9-2019-q4/build/arm-none-eabi/arm/v5te/hard/libgcc/../../../../../../libgcc/config/arm/lib1funcs.S:1104
    afa8:	9a00006b 	bls	b15c <__udivsi3+0x1c4>
/build/gcc-arm-none-eabi-Gl9kT9/gcc-arm-none-eabi-9-2019-q4/build/arm-none-eabi/arm/v5te/hard/libgcc/../../../../../../libgcc/config/arm/lib1funcs.S:1105
    afac:	e1110002 	tst	r1, r2
/build/gcc-arm-none-eabi-Gl9kT9/gcc-arm-none-eabi-9-2019-q4/build/arm-none-eabi/arm/v5te/hard/libgcc/../../../../../../libgcc/config/arm/lib1funcs.S:1106
    afb0:	0a00006c 	beq	b168 <__udivsi3+0x1d0>
/build/gcc-arm-none-eabi-Gl9kT9/gcc-arm-none-eabi-9-2019-q4/build/arm-none-eabi/arm/v5te/hard/libgcc/../../../../../../libgcc/config/arm/lib1funcs.S:1108
    afb4:	e16f3f10 	clz	r3, r0
    afb8:	e16f2f11 	clz	r2, r1
    afbc:	e0423003 	sub	r3, r2, r3
    afc0:	e273301f 	rsbs	r3, r3, #31
    afc4:	10833083 	addne	r3, r3, r3, lsl #1
    afc8:	e3a02000 	mov	r2, #0
    afcc:	108ff103 	addne	pc, pc, r3, lsl #2
    afd0:	e1a00000 	nop			; (mov r0, r0)
    afd4:	e1500f81 	cmp	r0, r1, lsl #31
    afd8:	e0a22002 	adc	r2, r2, r2
    afdc:	20400f81 	subcs	r0, r0, r1, lsl #31
    afe0:	e1500f01 	cmp	r0, r1, lsl #30
    afe4:	e0a22002 	adc	r2, r2, r2
    afe8:	20400f01 	subcs	r0, r0, r1, lsl #30
    afec:	e1500e81 	cmp	r0, r1, lsl #29
    aff0:	e0a22002 	adc	r2, r2, r2
    aff4:	20400e81 	subcs	r0, r0, r1, lsl #29
    aff8:	e1500e01 	cmp	r0, r1, lsl #28
    affc:	e0a22002 	adc	r2, r2, r2
    b000:	20400e01 	subcs	r0, r0, r1, lsl #28
    b004:	e1500d81 	cmp	r0, r1, lsl #27
    b008:	e0a22002 	adc	r2, r2, r2
    b00c:	20400d81 	subcs	r0, r0, r1, lsl #27
    b010:	e1500d01 	cmp	r0, r1, lsl #26
    b014:	e0a22002 	adc	r2, r2, r2
    b018:	20400d01 	subcs	r0, r0, r1, lsl #26
    b01c:	e1500c81 	cmp	r0, r1, lsl #25
    b020:	e0a22002 	adc	r2, r2, r2
    b024:	20400c81 	subcs	r0, r0, r1, lsl #25
    b028:	e1500c01 	cmp	r0, r1, lsl #24
    b02c:	e0a22002 	adc	r2, r2, r2
    b030:	20400c01 	subcs	r0, r0, r1, lsl #24
    b034:	e1500b81 	cmp	r0, r1, lsl #23
    b038:	e0a22002 	adc	r2, r2, r2
    b03c:	20400b81 	subcs	r0, r0, r1, lsl #23
    b040:	e1500b01 	cmp	r0, r1, lsl #22
    b044:	e0a22002 	adc	r2, r2, r2
    b048:	20400b01 	subcs	r0, r0, r1, lsl #22
    b04c:	e1500a81 	cmp	r0, r1, lsl #21
    b050:	e0a22002 	adc	r2, r2, r2
    b054:	20400a81 	subcs	r0, r0, r1, lsl #21
    b058:	e1500a01 	cmp	r0, r1, lsl #20
    b05c:	e0a22002 	adc	r2, r2, r2
    b060:	20400a01 	subcs	r0, r0, r1, lsl #20
    b064:	e1500981 	cmp	r0, r1, lsl #19
    b068:	e0a22002 	adc	r2, r2, r2
    b06c:	20400981 	subcs	r0, r0, r1, lsl #19
    b070:	e1500901 	cmp	r0, r1, lsl #18
    b074:	e0a22002 	adc	r2, r2, r2
    b078:	20400901 	subcs	r0, r0, r1, lsl #18
    b07c:	e1500881 	cmp	r0, r1, lsl #17
    b080:	e0a22002 	adc	r2, r2, r2
    b084:	20400881 	subcs	r0, r0, r1, lsl #17
    b088:	e1500801 	cmp	r0, r1, lsl #16
    b08c:	e0a22002 	adc	r2, r2, r2
    b090:	20400801 	subcs	r0, r0, r1, lsl #16
    b094:	e1500781 	cmp	r0, r1, lsl #15
    b098:	e0a22002 	adc	r2, r2, r2
    b09c:	20400781 	subcs	r0, r0, r1, lsl #15
    b0a0:	e1500701 	cmp	r0, r1, lsl #14
    b0a4:	e0a22002 	adc	r2, r2, r2
    b0a8:	20400701 	subcs	r0, r0, r1, lsl #14
    b0ac:	e1500681 	cmp	r0, r1, lsl #13
    b0b0:	e0a22002 	adc	r2, r2, r2
    b0b4:	20400681 	subcs	r0, r0, r1, lsl #13
    b0b8:	e1500601 	cmp	r0, r1, lsl #12
    b0bc:	e0a22002 	adc	r2, r2, r2
    b0c0:	20400601 	subcs	r0, r0, r1, lsl #12
    b0c4:	e1500581 	cmp	r0, r1, lsl #11
    b0c8:	e0a22002 	adc	r2, r2, r2
    b0cc:	20400581 	subcs	r0, r0, r1, lsl #11
    b0d0:	e1500501 	cmp	r0, r1, lsl #10
    b0d4:	e0a22002 	adc	r2, r2, r2
    b0d8:	20400501 	subcs	r0, r0, r1, lsl #10
    b0dc:	e1500481 	cmp	r0, r1, lsl #9
    b0e0:	e0a22002 	adc	r2, r2, r2
    b0e4:	20400481 	subcs	r0, r0, r1, lsl #9
    b0e8:	e1500401 	cmp	r0, r1, lsl #8
    b0ec:	e0a22002 	adc	r2, r2, r2
    b0f0:	20400401 	subcs	r0, r0, r1, lsl #8
    b0f4:	e1500381 	cmp	r0, r1, lsl #7
    b0f8:	e0a22002 	adc	r2, r2, r2
    b0fc:	20400381 	subcs	r0, r0, r1, lsl #7
    b100:	e1500301 	cmp	r0, r1, lsl #6
    b104:	e0a22002 	adc	r2, r2, r2
    b108:	20400301 	subcs	r0, r0, r1, lsl #6
    b10c:	e1500281 	cmp	r0, r1, lsl #5
    b110:	e0a22002 	adc	r2, r2, r2
    b114:	20400281 	subcs	r0, r0, r1, lsl #5
    b118:	e1500201 	cmp	r0, r1, lsl #4
    b11c:	e0a22002 	adc	r2, r2, r2
    b120:	20400201 	subcs	r0, r0, r1, lsl #4
    b124:	e1500181 	cmp	r0, r1, lsl #3
    b128:	e0a22002 	adc	r2, r2, r2
    b12c:	20400181 	subcs	r0, r0, r1, lsl #3
    b130:	e1500101 	cmp	r0, r1, lsl #2
    b134:	e0a22002 	adc	r2, r2, r2
    b138:	20400101 	subcs	r0, r0, r1, lsl #2
    b13c:	e1500081 	cmp	r0, r1, lsl #1
    b140:	e0a22002 	adc	r2, r2, r2
    b144:	20400081 	subcs	r0, r0, r1, lsl #1
    b148:	e1500001 	cmp	r0, r1
    b14c:	e0a22002 	adc	r2, r2, r2
    b150:	20400001 	subcs	r0, r0, r1
/build/gcc-arm-none-eabi-Gl9kT9/gcc-arm-none-eabi-9-2019-q4/build/arm-none-eabi/arm/v5te/hard/libgcc/../../../../../../libgcc/config/arm/lib1funcs.S:1110
    b154:	e1a00002 	mov	r0, r2
/build/gcc-arm-none-eabi-Gl9kT9/gcc-arm-none-eabi-9-2019-q4/build/arm-none-eabi/arm/v5te/hard/libgcc/../../../../../../libgcc/config/arm/lib1funcs.S:1111
    b158:	e12fff1e 	bx	lr
/build/gcc-arm-none-eabi-Gl9kT9/gcc-arm-none-eabi-9-2019-q4/build/arm-none-eabi/arm/v5te/hard/libgcc/../../../../../../libgcc/config/arm/lib1funcs.S:1114
    b15c:	03a00001 	moveq	r0, #1
/build/gcc-arm-none-eabi-Gl9kT9/gcc-arm-none-eabi-9-2019-q4/build/arm-none-eabi/arm/v5te/hard/libgcc/../../../../../../libgcc/config/arm/lib1funcs.S:1115
    b160:	13a00000 	movne	r0, #0
/build/gcc-arm-none-eabi-Gl9kT9/gcc-arm-none-eabi-9-2019-q4/build/arm-none-eabi/arm/v5te/hard/libgcc/../../../../../../libgcc/config/arm/lib1funcs.S:1116
    b164:	e12fff1e 	bx	lr
/build/gcc-arm-none-eabi-Gl9kT9/gcc-arm-none-eabi-9-2019-q4/build/arm-none-eabi/arm/v5te/hard/libgcc/../../../../../../libgcc/config/arm/lib1funcs.S:1118
    b168:	e16f2f11 	clz	r2, r1
    b16c:	e262201f 	rsb	r2, r2, #31
/build/gcc-arm-none-eabi-Gl9kT9/gcc-arm-none-eabi-9-2019-q4/build/arm-none-eabi/arm/v5te/hard/libgcc/../../../../../../libgcc/config/arm/lib1funcs.S:1120
    b170:	e1a00230 	lsr	r0, r0, r2
/build/gcc-arm-none-eabi-Gl9kT9/gcc-arm-none-eabi-9-2019-q4/build/arm-none-eabi/arm/v5te/hard/libgcc/../../../../../../libgcc/config/arm/lib1funcs.S:1121
    b174:	e12fff1e 	bx	lr
/build/gcc-arm-none-eabi-Gl9kT9/gcc-arm-none-eabi-9-2019-q4/build/arm-none-eabi/arm/v5te/hard/libgcc/../../../../../../libgcc/config/arm/lib1funcs.S:1125
    b178:	e3500000 	cmp	r0, #0
    b17c:	13e00000 	mvnne	r0, #0
    b180:	ea000007 	b	b1a4 <__aeabi_idiv0>

0000b184 <__aeabi_uidivmod>:
__aeabi_uidivmod():
/build/gcc-arm-none-eabi-Gl9kT9/gcc-arm-none-eabi-9-2019-q4/build/arm-none-eabi/arm/v5te/hard/libgcc/../../../../../../libgcc/config/arm/lib1funcs.S:1156
    b184:	e3510000 	cmp	r1, #0
/build/gcc-arm-none-eabi-Gl9kT9/gcc-arm-none-eabi-9-2019-q4/build/arm-none-eabi/arm/v5te/hard/libgcc/../../../../../../libgcc/config/arm/lib1funcs.S:1157
    b188:	0afffffa 	beq	b178 <__udivsi3+0x1e0>
/build/gcc-arm-none-eabi-Gl9kT9/gcc-arm-none-eabi-9-2019-q4/build/arm-none-eabi/arm/v5te/hard/libgcc/../../../../../../libgcc/config/arm/lib1funcs.S:1158
    b18c:	e92d4003 	push	{r0, r1, lr}
/build/gcc-arm-none-eabi-Gl9kT9/gcc-arm-none-eabi-9-2019-q4/build/arm-none-eabi/arm/v5te/hard/libgcc/../../../../../../libgcc/config/arm/lib1funcs.S:1159
    b190:	ebffff80 	bl	af98 <__udivsi3>
/build/gcc-arm-none-eabi-Gl9kT9/gcc-arm-none-eabi-9-2019-q4/build/arm-none-eabi/arm/v5te/hard/libgcc/../../../../../../libgcc/config/arm/lib1funcs.S:1160
    b194:	e8bd4006 	pop	{r1, r2, lr}
/build/gcc-arm-none-eabi-Gl9kT9/gcc-arm-none-eabi-9-2019-q4/build/arm-none-eabi/arm/v5te/hard/libgcc/../../../../../../libgcc/config/arm/lib1funcs.S:1161
    b198:	e0030092 	mul	r3, r2, r0
/build/gcc-arm-none-eabi-Gl9kT9/gcc-arm-none-eabi-9-2019-q4/build/arm-none-eabi/arm/v5te/hard/libgcc/../../../../../../libgcc/config/arm/lib1funcs.S:1162
    b19c:	e0411003 	sub	r1, r1, r3
/build/gcc-arm-none-eabi-Gl9kT9/gcc-arm-none-eabi-9-2019-q4/build/arm-none-eabi/arm/v5te/hard/libgcc/../../../../../../libgcc/config/arm/lib1funcs.S:1163
    b1a0:	e12fff1e 	bx	lr

0000b1a4 <__aeabi_idiv0>:
__aeabi_ldiv0():
/build/gcc-arm-none-eabi-Gl9kT9/gcc-arm-none-eabi-9-2019-q4/build/arm-none-eabi/arm/v5te/hard/libgcc/../../../../../../libgcc/config/arm/lib1funcs.S:1461
    b1a4:	e12fff1e 	bx	lr
